Archive member included because of file (symbol)

contiki-exp5438.a(atom.o)     sdn-controller.co (atom_init)
contiki-exp5438.a(atom-buffer.o)
                              contiki-exp5438.a(atom.o) (atom_buffer_init)
contiki-exp5438.a(atom-net.o)
                              contiki-exp5438.a(atom.o) (atom_net_init)
contiki-exp5438.a(atom-sb-usdn.o)
                              sdn-controller.co (sb_usdn)
contiki-exp5438.a(atom-sb-rpl.o)
                              sdn-controller.co (sb_rpl)
contiki-exp5438.a(atom-app-route-)
                              sdn-controller.co (app_route_sp)
contiki-exp5438.a(atom-app-route-)
                              sdn-controller.co (app_route_rpl)
contiki-exp5438.a(atom-app-join-c)
                              sdn-controller.co (app_join_cfg)
contiki-exp5438.a(msp430.o)   sdn-controller.co (w_memcpy)
contiki-exp5438.a(leds.o)     obj_exp5438/contiki-exp5438-main.o (leds_init)
contiki-exp5438.a(watchdog.o)
                              obj_exp5438/contiki-exp5438-main.o (watchdog_start)
contiki-exp5438.a(cc2420.o)   obj_exp5438/contiki-exp5438-main.o (cc2420_set_pan_addr)
contiki-exp5438.a(cc2420-arch.o)
                              contiki-exp5438.a(cc2420.o) (cc2420_arch_init)
contiki-exp5438.a(rtimer-arch.o)
                              obj_exp5438/contiki-exp5438-main.o (rtimer_arch_now)
contiki-exp5438.a(node-id.o)  obj_exp5438/contiki-exp5438-main.o (node_mac)
contiki-exp5438.a(leds-arch.o)
                              contiki-exp5438.a(leds.o) (leds_arch_init)
contiki-exp5438.a(uart1x.o)   obj_exp5438/contiki-exp5438-main.o (uart1_active)
contiki-exp5438.a(lcd.o)      obj_exp5438/contiki-exp5438-main.o (lcd_init)
contiki-exp5438.a(duty-cycle-scro)
                              obj_exp5438/contiki-exp5438-main.o (duty_cycle_scroller_start)
contiki-exp5438.a(uart1-putchar.o)
                              obj_exp5438/contiki-exp5438-main.o (putchar)
contiki-exp5438.a(clock.o)    obj_exp5438/contiki-exp5438-main.o (clock_init)
contiki-exp5438.a(sdn-conf.o)
                              obj_exp5438/sdn-stats.o (SDN_CONF)
contiki-exp5438.a(sdn.o)      sdn-controller.co (sdn_init)
contiki-exp5438.a(usdn-adapter.o)
                              contiki-exp5438.a(sdn.o) (usdn_adapter)
contiki-exp5438.a(usdn-driver.o)
                              sdn-controller.co (usdn_driver)
contiki-exp5438.a(usdn-engine.o)
                              sdn-controller.co (usdn_engine)
contiki-exp5438.a(autostart.o)
                              obj_exp5438/contiki-exp5438-main.o (autostart_start)
contiki-exp5438.a(energest.o)
                              obj_exp5438/contiki-exp5438-main.o (energest_init)
contiki-exp5438.a(etimer.o)   contiki-exp5438.a(clock.o) (etimer_request_poll)
contiki-exp5438.a(log-ng.o)   contiki-exp5438.a(atom-net.o) (log_6addr)
contiki-exp5438.a(ctimer.o)   obj_exp5438/contiki-exp5438-main.o (ctimer_init)
contiki-exp5438.a(process.o)  contiki-exp5438.a(usdn-adapter.o) (process_current)
contiki-exp5438.a(rtimer.o)   obj_exp5438/contiki-exp5438-main.o (rtimer_init)
contiki-exp5438.a(timer.o)    contiki-exp5438.a(etimer.o) (timer_set)
contiki-exp5438.a(list.o)     contiki-exp5438.a(atom-buffer.o) (list_init)
contiki-exp5438.a(memb.o)     contiki-exp5438.a(atom-buffer.o) (memb_init)
contiki-exp5438.a(random.o)   contiki-exp5438.a(atom.o) (random_rand)
contiki-exp5438.a(uip-ds6.o)  contiki-exp5438.a(usdn-driver.o) (uip_ds6_is_addr_onlink)
contiki-exp5438.a(uip-ds6-route.o)
                              contiki-exp5438.a(uip-ds6.o) (uip_ds6_route_init)
contiki-exp5438.a(uip6.o)     sdn-controller.co (uip_aligned_buf)
contiki-exp5438.a(uip-ds6-nbr.o)
                              contiki-exp5438.a(sdn.o) (ds6_neighbors)
contiki-exp5438.a(uip-nd6.o)  contiki-exp5438.a(uip6.o) (uip_nd6_init)
contiki-exp5438.a(sicslowpan.o)
                              obj_exp5438/contiki-exp5438-main.o (sicslowpan_driver)
contiki-exp5438.a(uip-debug.o)
                              contiki-exp5438.a(uip6.o) (uip_debug_ipaddr_print)
contiki-exp5438.a(uip-udp-packet.)
                              contiki-exp5438.a(usdn-adapter.o) (uip_udp_packet_sendto)
contiki-exp5438.a(tcpip.o)    contiki-exp5438.a(usdn-driver.o) (tcpip_output)
contiki-exp5438.a(simple-udp.o)
                              contiki-exp5438.a(atom-sb-usdn.o) (simple_udp_sendto)
contiki-exp5438.a(rpl-ext-header.)
                              contiki-exp5438.a(uip6.o) (rpl_verify_hbh_header)
contiki-exp5438.a(rpl.o)      contiki-exp5438.a(uip-ds6-nbr.o) (rpl_link_neighbor_callback)
contiki-exp5438.a(rpl-ns.o)   contiki-exp5438.a(atom-app-route-) (rpl_ns_get_node)
contiki-exp5438.a(rpl-dag.o)  contiki-exp5438.a(rpl-ext-header.) (rpl_parents)
contiki-exp5438.a(rpl-dag-root.o)
                              contiki-exp5438.a(sdn.o) (rpl_dag_root_is_root)
contiki-exp5438.a(queuebuf.o)
                              obj_exp5438/contiki-exp5438-main.o (queuebuf_init)
contiki-exp5438.a(nbr-table.o)
                              contiki-exp5438.a(uip-ds6-nbr.o) (nbr_table_register)
contiki-exp5438.a(packetbuf.o)
                              contiki-exp5438.a(cc2420.o) (packetbuf_set_datalen)
contiki-exp5438.a(linkaddr.o)
                              obj_exp5438/contiki-exp5438-main.o (linkaddr_copy)
contiki-exp5438.a(link-stats.o)
                              contiki-exp5438.a(sdn.o) (link_stats_from_lladdr)
contiki-exp5438.a(framer-802154.o)
                              contiki-exp5438.a(sicslowpan.o) (framer_802154)
contiki-exp5438.a(csma.o)     obj_exp5438/contiki-exp5438-main.o (csma_driver)
contiki-exp5438.a(frame802154.o)
                              contiki-exp5438.a(framer-802154.o) (frame802154_get_pan_id)
contiki-exp5438.a(mac.o)      contiki-exp5438.a(csma.o) (mac_call_sent_callback)
contiki-exp5438.a(nullrdc.o)  obj_exp5438/contiki-exp5438-main.o (nullrdc_driver)
contiki-exp5438.a(nullsec.o)  contiki-exp5438.a(sicslowpan.o) (nullsec_driver)
contiki-exp5438.a(spix.o)     contiki-exp5438.a(cc2420-arch.o) (spi_init)
contiki-exp5438.a(sdn-ft.o)   contiki-exp5438.a(usdn-driver.o) (sdn_ft_check_default)
contiki-exp5438.a(sdn-cd.o)   contiki-exp5438.a(sdn.o) (DEFAULT_CONTROLLER)
contiki-exp5438.a(sdn-ext-header.)
                              contiki-exp5438.a(usdn-driver.o) (sdn_ext_insert_srh)
contiki-exp5438.a(sdn-packetbuf.o)
                              contiki-exp5438.a(usdn-driver.o) (sdn_pbuf_allocate)
contiki-exp5438.a(stimer.o)   contiki-exp5438.a(uip-ds6.o) (stimer_set)
contiki-exp5438.a(uip-icmp6.o)
                              contiki-exp5438.a(uip6.o) (uip_icmp6_input)
contiki-exp5438.a(rpl-icmp6.o)
                              contiki-exp5438.a(rpl-dag.o) (rpl_icmp6_update_nbr_table)
contiki-exp5438.a(rpl-sdn.o)  contiki-exp5438.a(rpl-icmp6.o) (rpl_sdn_dao_received)
contiki-exp5438.a(rpl-timers.o)
                              contiki-exp5438.a(rpl.o) (rpl_reset_periodic_timer)
contiki-exp5438.a(rpl-nbr-policy.)
                              contiki-exp5438.a(nbr-table.o) (rpl_nbr_policy_find_removable)
contiki-exp5438.a(rpl-mrhof.o)
                              contiki-exp5438.a(rpl-dag.o) (rpl_mrhof)
contiki-exp5438.a(mac-sequence.o)
                              contiki-exp5438.a(nullrdc.o) (mac_sequence_is_duplicate)
/home/mkulkarni/opt/compiler/mspgcc-4.7.3/bin/../lib/gcc/msp430/4.7.3/mcpu-430x/mmpy-16/msr20/mc20/libgcc.a(_udivmod16.o)
                              contiki-exp5438.a(usdn-engine.o) (__udivhi3)
/home/mkulkarni/opt/compiler/mspgcc-4.7.3/bin/../lib/gcc/msp430/4.7.3/mcpu-430x/mmpy-16/msr20/mc20/libgcc.a(_divmod16.o)
                              contiki-exp5438.a(rpl-ext-header.) (__divhi3)
/home/mkulkarni/opt/compiler/mspgcc-4.7.3/bin/../lib/gcc/msp430/4.7.3/mcpu-430x/mmpy-16/msr20/mc20/libgcc.a(_udivmod32.o)
                              obj_exp5438/sdn-stats.o (__udivsi3)
/home/mkulkarni/opt/compiler/mspgcc-4.7.3/bin/../lib/gcc/msp430/4.7.3/mcpu-430x/mmpy-16/msr20/mc20/libgcc.a(_divmod32.o)
                              contiki-exp5438.a(link-stats.o) (__divsi3)
/home/mkulkarni/opt/compiler/mspgcc-4.7.3/bin/../lib/gcc/msp430/4.7.3/mcpu-430x/mmpy-16/msr20/mc20/libgcc.a(_fixunssfsi.o)
                              obj_exp5438/sdn-stats.o (__fixunssfsi)
/home/mkulkarni/opt/compiler/mspgcc-4.7.3/bin/../lib/gcc/msp430/4.7.3/mcpu-430x/mmpy-16/msr20/mc20/libgcc.a(_addsub_sf.o)
                              obj_exp5438/sdn-stats.o (__addsf3)
/home/mkulkarni/opt/compiler/mspgcc-4.7.3/bin/../lib/gcc/msp430/4.7.3/mcpu-430x/mmpy-16/msr20/mc20/libgcc.a(_mul_sf.o)
                              obj_exp5438/sdn-stats.o (__mulsf3)
/home/mkulkarni/opt/compiler/mspgcc-4.7.3/bin/../lib/gcc/msp430/4.7.3/mcpu-430x/mmpy-16/msr20/mc20/libgcc.a(_ge_sf.o)
                              /home/mkulkarni/opt/compiler/mspgcc-4.7.3/bin/../lib/gcc/msp430/4.7.3/mcpu-430x/mmpy-16/msr20/mc20/libgcc.a(_fixunssfsi.o) (__gesf2)
/home/mkulkarni/opt/compiler/mspgcc-4.7.3/bin/../lib/gcc/msp430/4.7.3/mcpu-430x/mmpy-16/msr20/mc20/libgcc.a(_sf_to_si.o)
                              /home/mkulkarni/opt/compiler/mspgcc-4.7.3/bin/../lib/gcc/msp430/4.7.3/mcpu-430x/mmpy-16/msr20/mc20/libgcc.a(_fixunssfsi.o) (__fixsfsi)
/home/mkulkarni/opt/compiler/mspgcc-4.7.3/bin/../lib/gcc/msp430/4.7.3/mcpu-430x/mmpy-16/msr20/mc20/libgcc.a(_thenan_sf.o)
                              /home/mkulkarni/opt/compiler/mspgcc-4.7.3/bin/../lib/gcc/msp430/4.7.3/mcpu-430x/mmpy-16/msr20/mc20/libgcc.a(_addsub_sf.o) (__thenan_sf)
/home/mkulkarni/opt/compiler/mspgcc-4.7.3/bin/../lib/gcc/msp430/4.7.3/mcpu-430x/mmpy-16/msr20/mc20/libgcc.a(_usi_to_sf.o)
                              obj_exp5438/sdn-stats.o (__floatunsisf)
/home/mkulkarni/opt/compiler/mspgcc-4.7.3/bin/../lib/gcc/msp430/4.7.3/mcpu-430x/mmpy-16/msr20/mc20/libgcc.a(_clzsi2.o)
                              /home/mkulkarni/opt/compiler/mspgcc-4.7.3/bin/../lib/gcc/msp430/4.7.3/mcpu-430x/mmpy-16/msr20/mc20/libgcc.a(_usi_to_sf.o) (__clzsi2)
/home/mkulkarni/opt/compiler/mspgcc-4.7.3/bin/../lib/gcc/msp430/4.7.3/mcpu-430x/mmpy-16/msr20/mc20/libgcc.a(_pack_sf.o)
                              /home/mkulkarni/opt/compiler/mspgcc-4.7.3/bin/../lib/gcc/msp430/4.7.3/mcpu-430x/mmpy-16/msr20/mc20/libgcc.a(_addsub_sf.o) (__pack_f)
/home/mkulkarni/opt/compiler/mspgcc-4.7.3/bin/../lib/gcc/msp430/4.7.3/mcpu-430x/mmpy-16/msr20/mc20/libgcc.a(_unpack_sf.o)
                              /home/mkulkarni/opt/compiler/mspgcc-4.7.3/bin/../lib/gcc/msp430/4.7.3/mcpu-430x/mmpy-16/msr20/mc20/libgcc.a(_addsub_sf.o) (__unpack_f)
/home/mkulkarni/opt/compiler/mspgcc-4.7.3/bin/../lib/gcc/msp430/4.7.3/mcpu-430x/mmpy-16/msr20/mc20/libgcc.a(_fpcmp_parts_sf.o)
                              /home/mkulkarni/opt/compiler/mspgcc-4.7.3/bin/../lib/gcc/msp430/4.7.3/mcpu-430x/mmpy-16/msr20/mc20/libgcc.a(_ge_sf.o) (__fpcmp_parts_f)
/home/mkulkarni/opt/compiler/mspgcc-4.7.3/bin/../lib/gcc/msp430/4.7.3/mcpu-430x/mmpy-16/msr20/mc20/libgcc.a(_clz.o)
                              /home/mkulkarni/opt/compiler/mspgcc-4.7.3/bin/../lib/gcc/msp430/4.7.3/mcpu-430x/mmpy-16/msr20/mc20/libgcc.a(_clzsi2.o) (__clz_tab)
/home/mkulkarni/opt/compiler/mspgcc-4.7.3/bin/../lib/gcc/msp430/4.7.3/../../../../msp430/lib/mcpu-430x/mmpy-16/msr20/mc20/libc.a(printf.o)
                              sdn-controller.co (printf)
/home/mkulkarni/opt/compiler/mspgcc-4.7.3/bin/../lib/gcc/msp430/4.7.3/../../../../msp430/lib/mcpu-430x/mmpy-16/msr20/mc20/libc.a(vuprintf.o)
                              /home/mkulkarni/opt/compiler/mspgcc-4.7.3/bin/../lib/gcc/msp430/4.7.3/../../../../msp430/lib/mcpu-430x/mmpy-16/msr20/mc20/libc.a(printf.o) (vuprintf)
/home/mkulkarni/opt/compiler/mspgcc-4.7.3/bin/../lib/gcc/msp430/4.7.3/../../../../msp430/lib/mcpu-430x/mmpy-16/msr20/mc20/libc.a(puts.o)
                              sdn-controller.co (puts)
/home/mkulkarni/opt/compiler/mspgcc-4.7.3/bin/../lib/gcc/msp430/4.7.3/../../../../msp430/lib/mcpu-430x/mmpy-16/msr20/mc20/libc.a(rand.o)
                              contiki-exp5438.a(random.o) (rand)
/home/mkulkarni/opt/compiler/mspgcc-4.7.3/bin/../lib/gcc/msp430/4.7.3/../../../../msp430/lib/mcpu-430x/mmpy-16/msr20/mc20/libc.a(strcmp.o)
                              contiki-exp5438.a(log-ng.o) (strcmp)
/home/mkulkarni/opt/compiler/mspgcc-4.7.3/bin/../lib/gcc/msp430/4.7.3/../../../../msp430/lib/mcpu-430x/mmpy-16/msr20/mc20/libc.a(memcmp.o)
                              contiki-exp5438.a(atom-net.o) (memcmp)
/home/mkulkarni/opt/compiler/mspgcc-4.7.3/bin/../lib/gcc/msp430/4.7.3/../../../../msp430/lib/mcpu-430x/mmpy-16/msr20/mc20/libc.a(memcpy.o)
                              contiki-exp5438.a(atom.o) (memcpy)
/home/mkulkarni/opt/compiler/mspgcc-4.7.3/bin/../lib/gcc/msp430/4.7.3/../../../../msp430/lib/mcpu-430x/mmpy-16/msr20/mc20/libc.a(memmove.o)
                              contiki-exp5438.a(uip6.o) (memmove)
/home/mkulkarni/opt/compiler/mspgcc-4.7.3/bin/../lib/gcc/msp430/4.7.3/../../../../msp430/lib/mcpu-430x/mmpy-16/msr20/mc20/libc.a(memset.o)
                              sdn-controller.co (memset)
/home/mkulkarni/opt/compiler/mspgcc-4.7.3/bin/../lib/gcc/msp430/4.7.3/mcpu-430x/mmpy-16/msr20/mc20/libgcc.a(_mulsi3.o)
                              /home/mkulkarni/opt/compiler/mspgcc-4.7.3/bin/../lib/gcc/msp430/4.7.3/../../../../msp430/lib/mcpu-430x/mmpy-16/msr20/mc20/libc.a(rand.o) (__mulsi3)
/home/mkulkarni/opt/compiler/mspgcc-4.7.3/bin/../lib/gcc/msp430/4.7.3/mcpu-430x/mmpy-16/msr20/mc20/libgcc.a(_udivmod64.o)
                              /home/mkulkarni/opt/compiler/mspgcc-4.7.3/bin/../lib/gcc/msp430/4.7.3/../../../../msp430/lib/mcpu-430x/mmpy-16/msr20/mc20/libc.a(vuprintf.o) (__udivdi3)
/home/mkulkarni/opt/compiler/mspgcc-4.7.3/bin/../lib/gcc/msp430/4.7.3/mcpu-430x/mmpy-16/msr20/mc20/libcrt0.a(_reset_vector__.o)
                              (_reset_vector__)
/home/mkulkarni/opt/compiler/mspgcc-4.7.3/bin/../lib/gcc/msp430/4.7.3/mcpu-430x/mmpy-16/msr20/mc20/libcrt0.a(__watchdog_support.o)
                              /home/mkulkarni/opt/compiler/mspgcc-4.7.3/bin/../lib/gcc/msp430/4.7.3/mcpu-430x/mmpy-16/msr20/mc20/libcrt0.a(_reset_vector__.o) (__watchdog_support)
/home/mkulkarni/opt/compiler/mspgcc-4.7.3/bin/../lib/gcc/msp430/4.7.3/mcpu-430x/mmpy-16/msr20/mc20/libcrt0.a(__init_stack.o)
                              /home/mkulkarni/opt/compiler/mspgcc-4.7.3/bin/../lib/gcc/msp430/4.7.3/mcpu-430x/mmpy-16/msr20/mc20/libcrt0.a(_reset_vector__.o) (__init_stack)
/home/mkulkarni/opt/compiler/mspgcc-4.7.3/bin/../lib/gcc/msp430/4.7.3/mcpu-430x/mmpy-16/msr20/mc20/libcrt0.a(__low_level_init.o)
                              /home/mkulkarni/opt/compiler/mspgcc-4.7.3/bin/../lib/gcc/msp430/4.7.3/mcpu-430x/mmpy-16/msr20/mc20/libcrt0.a(_reset_vector__.o) (__low_level_init)
/home/mkulkarni/opt/compiler/mspgcc-4.7.3/bin/../lib/gcc/msp430/4.7.3/mcpu-430x/mmpy-16/msr20/mc20/libcrt0.a(_copy_data.o)
                              /home/mkulkarni/opt/compiler/mspgcc-4.7.3/bin/../lib/gcc/msp430/4.7.3/mcpu-430x/mmpy-16/msr20/mc20/libcrt0.a(_reset_vector__.o) (__do_copy_data)
/home/mkulkarni/opt/compiler/mspgcc-4.7.3/bin/../lib/gcc/msp430/4.7.3/mcpu-430x/mmpy-16/msr20/mc20/libcrt0.a(_clear_bss.o)
                              /home/mkulkarni/opt/compiler/mspgcc-4.7.3/bin/../lib/gcc/msp430/4.7.3/mcpu-430x/mmpy-16/msr20/mc20/libcrt0.a(_reset_vector__.o) (__do_clear_bss)
/home/mkulkarni/opt/compiler/mspgcc-4.7.3/bin/../lib/gcc/msp430/4.7.3/mcpu-430x/mmpy-16/msr20/mc20/libcrt0.a(__stop_progExec__.o)
                              /home/mkulkarni/opt/compiler/mspgcc-4.7.3/bin/../lib/gcc/msp430/4.7.3/mcpu-430x/mmpy-16/msr20/mc20/libcrt0.a(_reset_vector__.o) (__stop_progExec__)
/home/mkulkarni/opt/compiler/mspgcc-4.7.3/bin/../lib/gcc/msp430/4.7.3/mcpu-430x/mmpy-16/msr20/mc20/libcrt0.a(_endless_loop__.o)
                              /home/mkulkarni/opt/compiler/mspgcc-4.7.3/bin/../lib/gcc/msp430/4.7.3/mcpu-430x/mmpy-16/msr20/mc20/libcrt0.a(_reset_vector__.o) (_endless_loop__)
/home/mkulkarni/opt/compiler/mspgcc-4.7.3/bin/../lib/gcc/msp430/4.7.3/mcpu-430x/mmpy-16/msr20/mc20/libcrt0.a(_unexpected_.o)
                              /home/mkulkarni/opt/compiler/mspgcc-4.7.3/bin/../lib/gcc/msp430/4.7.3/mcpu-430x/mmpy-16/msr20/mc20/crt0ivtbl64.o (_unexpected_)

Allocating common symbols
Common symbol       size              file

energest_total_time
                    0x30              contiki-exp5438.a(energest.o)
uip_ds6_timer_ra    0x8               contiki-exp5438.a(uip-ds6.o)
cc2420_last_rssi    0x1               contiki-exp5438.a(cc2420.o)
uip_ds6_if          0xec              contiki-exp5438.a(uip-ds6.o)
uip_ds6_netif_addr_list_offset
                    0x1               contiki-exp5438.a(uip-ds6.o)
uip_len             0x2               contiki-exp5438.a(uip6.o)
energest_total_count
                    0x2               contiki-exp5438.a(energest.o)
DEFAULT_CONTROLLER  0x2               contiki-exp5438.a(sdn-cd.o)
cc2420_sfd_start_time
                    0x2               contiki-exp5438.a(cc2420.o)
cc2420_time_of_departure
                    0x2               contiki-exp5438.a(cc2420.o)
c_slen              0x2               contiki-exp5438.a(atom-buffer.o)
c_len               0x2               contiki-exp5438.a(atom-buffer.o)
c_hops              0x1               contiki-exp5438.a(atom-buffer.o)
cc2420_time_of_arrival
                    0x2               contiki-exp5438.a(cc2420.o)
uip_ds6_addr_size   0x1               contiki-exp5438.a(uip-ds6.o)
uip_sappdata        0x2               contiki-exp5438.a(uip6.o)
energest_current_mode
                    0xc               contiki-exp5438.a(energest.o)
packetbuf_addrs     0x10              contiki-exp5438.a(packetbuf.o)
uip_ds6_prefix_list
                    0x5a              contiki-exp5438.a(uip-ds6.o)
process_maxevents   0x1               contiki-exp5438.a(process.o)
c_ext_len           0x1               contiki-exp5438.a(atom-buffer.o)
uip_lladdr          0x8               contiki-exp5438.a(uip6.o)
uip_aligned_buf     0xf0              contiki-exp5438.a(uip6.o)
uip_flags           0x1               contiki-exp5438.a(uip6.o)
periodic_timer      0x16              contiki-exp5438.a(link-stats.o)
ft_action_handler   0x4               sdn-controller.co
uip_ds6_timer_periodic
                    0xc               contiki-exp5438.a(uip-ds6.o)
uip_next_hdr        0x2               contiki-exp5438.a(uip6.o)
cc2420_last_correlation
                    0x1               contiki-exp5438.a(cc2420.o)
linkaddr_node_addr  0x8               contiki-exp5438.a(linkaddr.o)
default_instance    0x2               contiki-exp5438.a(rpl-dag.o)
cc2420_authority_level_of_sender
                    0x2               contiki-exp5438.a(cc2420.o)
uip_udp_conn        0x2               contiki-exp5438.a(uip6.o)
controller_addr     0x10              contiki-exp5438.a(atom.o)
packetbuf_attrs     0x1e              contiki-exp5438.a(packetbuf.o)
cc2420_sfd_counter  0x1               contiki-exp5438.a(cc2420.o)
instance_table      0x108             contiki-exp5438.a(rpl-dag.o)
uip_appdata         0x2               contiki-exp5438.a(uip6.o)
uip_conn            0x2               contiki-exp5438.a(uip6.o)
tcpip_event         0x1               contiki-exp5438.a(tcpip.o)
c_alligned_buf      0xf0              contiki-exp5438.a(atom-buffer.o)
node_mac            0x8               contiki-exp5438.a(node-id.o)
dag_joined_callback
                    0x4               contiki-exp5438.a(rpl-sdn.o)
sdn_stats           0x1e              contiki-exp5438.a(sdn.o)
energest_current_time
                    0x18              contiki-exp5438.a(energest.o)
SDN_CONF            0xe               contiki-exp5438.a(sdn-conf.o)
cc2420_sfd_end_time
                    0x2               contiki-exp5438.a(cc2420.o)
uip_slen            0x2               contiki-exp5438.a(uip6.o)
uip_udp_conns       0x138             contiki-exp5438.a(uip6.o)

Discarded input sections

 .data          0x0000000000000000        0x0 /home/mkulkarni/opt/compiler/mspgcc-4.7.3/bin/../lib/gcc/msp430/4.7.3/mcpu-430x/mmpy-16/msr20/mc20/crt0ivtbl64.o
 .bss           0x0000000000000000        0x0 /home/mkulkarni/opt/compiler/mspgcc-4.7.3/bin/../lib/gcc/msp430/4.7.3/mcpu-430x/mmpy-16/msr20/mc20/crt0ivtbl64.o
 .text.crt0     0x0000000000000000        0x0 /home/mkulkarni/opt/compiler/mspgcc-4.7.3/bin/../lib/gcc/msp430/4.7.3/mcpu-430x/mmpy-16/msr20/mc20/crt0ivtbl64.o
 .text          0x0000000000000000        0x0 sdn-controller.co
 .data          0x0000000000000000        0x0 sdn-controller.co
 .bss           0x0000000000000000        0x0 sdn-controller.co
 .text          0x0000000000000000        0x0 obj_exp5438/sdn-stats.o
 .data          0x0000000000000000        0x0 obj_exp5438/sdn-stats.o
 .bss           0x0000000000000000        0x0 obj_exp5438/sdn-stats.o
 .any.text.sdn_stats_stop
                0x0000000000000000        0xa obj_exp5438/sdn-stats.o
 .text          0x0000000000000000        0x0 obj_exp5438/contiki-exp5438-main.o
 .data          0x0000000000000000        0x0 obj_exp5438/contiki-exp5438-main.o
 .bss           0x0000000000000000        0x0 obj_exp5438/contiki-exp5438-main.o
 .text          0x0000000000000000        0x0 contiki-exp5438.a(atom.o)
 .data          0x0000000000000000        0x0 contiki-exp5438.a(atom.o)
 .bss           0x0000000000000000        0x0 contiki-exp5438.a(atom.o)
 .text          0x0000000000000000        0x0 contiki-exp5438.a(atom-buffer.o)
 .data          0x0000000000000000        0x0 contiki-exp5438.a(atom-buffer.o)
 .bss           0x0000000000000000        0x0 contiki-exp5438.a(atom-buffer.o)
 .any.text.atom_buffer_copy_cbuf_to_uip
                0x0000000000000000       0x1e contiki-exp5438.a(atom-buffer.o)
 .text          0x0000000000000000        0x0 contiki-exp5438.a(atom-net.o)
 .data          0x0000000000000000        0x0 contiki-exp5438.a(atom-net.o)
 .bss           0x0000000000000000        0x0 contiki-exp5438.a(atom-net.o)
 .any.text.print_node
                0x0000000000000000        0x2 contiki-exp5438.a(atom-net.o)
 .text          0x0000000000000000        0x0 contiki-exp5438.a(atom-sb-usdn.o)
 .data          0x0000000000000000        0x0 contiki-exp5438.a(atom-sb-usdn.o)
 .bss           0x0000000000000000        0x0 contiki-exp5438.a(atom-sb-usdn.o)
 .any.text.usdn_set_header
                0x0000000000000000       0x16 contiki-exp5438.a(atom-sb-usdn.o)
 .any.text.cack_output
                0x0000000000000000       0x16 contiki-exp5438.a(atom-sb-usdn.o)
 .text          0x0000000000000000        0x0 contiki-exp5438.a(atom-sb-rpl.o)
 .data          0x0000000000000000        0x0 contiki-exp5438.a(atom-sb-rpl.o)
 .bss           0x0000000000000000        0x0 contiki-exp5438.a(atom-sb-rpl.o)
 .text          0x0000000000000000        0x0 contiki-exp5438.a(atom-app-route-)
 .data          0x0000000000000000        0x0 contiki-exp5438.a(atom-app-route-)
 .bss           0x0000000000000000        0x0 contiki-exp5438.a(atom-app-route-)
 .text          0x0000000000000000        0x0 contiki-exp5438.a(atom-app-route-)
 .data          0x0000000000000000        0x0 contiki-exp5438.a(atom-app-route-)
 .bss           0x0000000000000000        0x0 contiki-exp5438.a(atom-app-route-)
 .text          0x0000000000000000        0x0 contiki-exp5438.a(atom-app-join-c)
 .data          0x0000000000000000        0x0 contiki-exp5438.a(atom-app-join-c)
 .bss           0x0000000000000000        0x0 contiki-exp5438.a(atom-app-join-c)
 .text          0x0000000000000000        0x0 contiki-exp5438.a(msp430.o)
 .data          0x0000000000000000        0x0 contiki-exp5438.a(msp430.o)
 .bss           0x0000000000000000        0x0 contiki-exp5438.a(msp430.o)
 .any.text.msp430_init_dco
                0x0000000000000000        0x2 contiki-exp5438.a(msp430.o)
 .any.text.msp430_dco_speed
                0x0000000000000000        0xa contiki-exp5438.a(msp430.o)
 .any.text.splx_
                0x0000000000000000        0x4 contiki-exp5438.a(msp430.o)
 .any.text.msp430_sync_dco
                0x0000000000000000        0x2 contiki-exp5438.a(msp430.o)
 .text          0x0000000000000000        0x0 contiki-exp5438.a(leds.o)
 .data          0x0000000000000000        0x0 contiki-exp5438.a(leds.o)
 .bss           0x0000000000000000        0x0 contiki-exp5438.a(leds.o)
 .any.text.leds_get
                0x0000000000000000        0x6 contiki-exp5438.a(leds.o)
 .any.text.leds_set
                0x0000000000000000        0x6 contiki-exp5438.a(leds.o)
 .any.text.leds_toggle
                0x0000000000000000        0xa contiki-exp5438.a(leds.o)
 .any.text.leds_blink
                0x0000000000000000       0x20 contiki-exp5438.a(leds.o)
 .text          0x0000000000000000        0x0 contiki-exp5438.a(watchdog.o)
 .data          0x0000000000000000        0x0 contiki-exp5438.a(watchdog.o)
 .bss           0x0000000000000000        0x0 contiki-exp5438.a(watchdog.o)
 .any.text.watchdog_reboot
                0x0000000000000000        0x6 contiki-exp5438.a(watchdog.o)
 .text          0x0000000000000000        0x0 contiki-exp5438.a(cc2420.o)
 .data          0x0000000000000000        0x0 contiki-exp5438.a(cc2420.o)
 .bss           0x0000000000000000        0x0 contiki-exp5438.a(cc2420.o)
 .any.text.set_key
                0x0000000000000000       0x18 contiki-exp5438.a(cc2420.o)
 .any.text.encrypt
                0x0000000000000000       0x82 contiki-exp5438.a(cc2420.o)
 .any.text.cc2420_get_channel
                0x0000000000000000        0x6 contiki-exp5438.a(cc2420.o)
 .rodata.cc2420_aes_128_driver
                0x0000000000000000        0x8 contiki-exp5438.a(cc2420.o)
 .text          0x0000000000000000        0x0 contiki-exp5438.a(cc2420-arch.o)
 .data          0x0000000000000000        0x0 contiki-exp5438.a(cc2420-arch.o)
 .bss           0x0000000000000000        0x0 contiki-exp5438.a(cc2420-arch.o)
 .text          0x0000000000000000        0x0 contiki-exp5438.a(rtimer-arch.o)
 .data          0x0000000000000000        0x0 contiki-exp5438.a(rtimer-arch.o)
 .bss           0x0000000000000000        0x0 contiki-exp5438.a(rtimer-arch.o)
 .text          0x0000000000000000        0x0 contiki-exp5438.a(node-id.o)
 .data          0x0000000000000000        0x0 contiki-exp5438.a(node-id.o)
 .bss           0x0000000000000000        0x0 contiki-exp5438.a(node-id.o)
 .any.text.node_id_restore
                0x0000000000000000       0x54 contiki-exp5438.a(node-id.o)
 .any.text.node_id_burn
                0x0000000000000000        0x2 contiki-exp5438.a(node-id.o)
 .data.id       0x0000000000000000        0x2 contiki-exp5438.a(node-id.o)
 .text          0x0000000000000000        0x0 contiki-exp5438.a(leds-arch.o)
 .data          0x0000000000000000        0x0 contiki-exp5438.a(leds-arch.o)
 .bss           0x0000000000000000        0x0 contiki-exp5438.a(leds-arch.o)
 .any.text.leds_arch_get
                0x0000000000000000       0x1c contiki-exp5438.a(leds-arch.o)
 .text          0x0000000000000000        0x0 contiki-exp5438.a(uart1x.o)
 .data          0x0000000000000000        0x0 contiki-exp5438.a(uart1x.o)
 .bss           0x0000000000000000        0x0 contiki-exp5438.a(uart1x.o)
 .any.text.uart1_set_input
                0x0000000000000000        0x6 contiki-exp5438.a(uart1x.o)
 .text          0x0000000000000000        0x0 contiki-exp5438.a(lcd.o)
 .data          0x0000000000000000        0x0 contiki-exp5438.a(lcd.o)
 .bss           0x0000000000000000        0x0 contiki-exp5438.a(lcd.o)
 .any.text.lcd_clear
                0x0000000000000000        0x2 contiki-exp5438.a(lcd.o)
 .any.text.lcd_set_pixel
                0x0000000000000000        0x2 contiki-exp5438.a(lcd.o)
 .any.text.lcd_draw_line
                0x0000000000000000        0x2 contiki-exp5438.a(lcd.o)
 .text          0x0000000000000000        0x0 contiki-exp5438.a(duty-cycle-scro)
 .data          0x0000000000000000        0x0 contiki-exp5438.a(duty-cycle-scro)
 .bss           0x0000000000000000        0x0 contiki-exp5438.a(duty-cycle-scro)
 .any.text.duty_cycle_scroller_stop
                0x0000000000000000        0xa contiki-exp5438.a(duty-cycle-scro)
 .text          0x0000000000000000        0x0 contiki-exp5438.a(uart1-putchar.o)
 .data          0x0000000000000000        0x0 contiki-exp5438.a(uart1-putchar.o)
 .bss           0x0000000000000000        0x0 contiki-exp5438.a(uart1-putchar.o)
 .text          0x0000000000000000        0x0 contiki-exp5438.a(clock.o)
 .data          0x0000000000000000        0x0 contiki-exp5438.a(clock.o)
 .bss           0x0000000000000000        0x0 contiki-exp5438.a(clock.o)
 .any.text.clock_set
                0x0000000000000000       0x16 contiki-exp5438.a(clock.o)
 .any.text.clock_fine_max
                0x0000000000000000        0x6 contiki-exp5438.a(clock.o)
 .any.text.clock_fine
                0x0000000000000000        0xa contiki-exp5438.a(clock.o)
 .any.text.__delay_cycles
                0x0000000000000000        0x6 contiki-exp5438.a(clock.o)
 .any.text.clock_wait
                0x0000000000000000       0x24 contiki-exp5438.a(clock.o)
 .any.text.clock_set_seconds
                0x0000000000000000        0x2 contiki-exp5438.a(clock.o)
 .any.text.clock_counter
                0x0000000000000000        0x6 contiki-exp5438.a(clock.o)
 .text          0x0000000000000000        0x0 contiki-exp5438.a(sdn-conf.o)
 .data          0x0000000000000000        0x0 contiki-exp5438.a(sdn-conf.o)
 .bss           0x0000000000000000        0x0 contiki-exp5438.a(sdn-conf.o)
 .any.text.sdn_conf_print
                0x0000000000000000        0x2 contiki-exp5438.a(sdn-conf.o)
 .text          0x0000000000000000        0x0 contiki-exp5438.a(sdn.o)
 .data          0x0000000000000000        0x0 contiki-exp5438.a(sdn.o)
 .bss           0x0000000000000000        0x0 contiki-exp5438.a(sdn.o)
 .rodata.sdn_rpl_get_current_instance_rank
                0x0000000000000000       0x48 contiki-exp5438.a(sdn.o)
 .any.text.sdn_rpl_get_current_instance_rank
                0x0000000000000000       0x74 contiki-exp5438.a(sdn.o)
 .any.text.sdn_get_nbr_link_is_fresh
                0x0000000000000000        0xa contiki-exp5438.a(sdn.o)
 .any.text.print_sdn_srh_route
                0x0000000000000000        0x2 contiki-exp5438.a(sdn.o)
 .text          0x0000000000000000        0x0 contiki-exp5438.a(usdn-adapter.o)
 .data          0x0000000000000000        0x0 contiki-exp5438.a(usdn-adapter.o)
 .bss           0x0000000000000000        0x0 contiki-exp5438.a(usdn-adapter.o)
 .text          0x0000000000000000        0x0 contiki-exp5438.a(usdn-driver.o)
 .data          0x0000000000000000        0x0 contiki-exp5438.a(usdn-driver.o)
 .bss           0x0000000000000000        0x0 contiki-exp5438.a(usdn-driver.o)
 .any.text.usdn_add_fwd_on_src
                0x0000000000000000       0x44 contiki-exp5438.a(usdn-driver.o)
 .any.text.usdn_add_fwd_on_dest_infinite
                0x0000000000000000       0x44 contiki-exp5438.a(usdn-driver.o)
 .text          0x0000000000000000        0x0 contiki-exp5438.a(usdn-engine.o)
 .data          0x0000000000000000        0x0 contiki-exp5438.a(usdn-engine.o)
 .bss           0x0000000000000000        0x0 contiki-exp5438.a(usdn-engine.o)
 .rodata.print_usdn_header
                0x0000000000000000       0x13 contiki-exp5438.a(usdn-engine.o)
 .any.text.print_usdn_header
                0x0000000000000000       0x82 contiki-exp5438.a(usdn-engine.o)
 .rodata.print_usdn_ftq
                0x0000000000000000       0x16 contiki-exp5438.a(usdn-engine.o)
 .any.text.print_usdn_ftq
                0x0000000000000000       0x52 contiki-exp5438.a(usdn-engine.o)
 .rodata.print_usdn_match
                0x0000000000000000       0x78 contiki-exp5438.a(usdn-engine.o)
 .any.text.print_usdn_match
                0x0000000000000000       0xa0 contiki-exp5438.a(usdn-engine.o)
 .rodata.print_usdn_fts
                0x0000000000000000       0x88 contiki-exp5438.a(usdn-engine.o)
 .any.text.print_usdn_fts
                0x0000000000000000       0xca contiki-exp5438.a(usdn-engine.o)
 .rodata.print_usdn_nsu
                0x0000000000000000       0x21 contiki-exp5438.a(usdn-engine.o)
 .any.text.print_usdn_nsu
                0x0000000000000000       0x5e contiki-exp5438.a(usdn-engine.o)
 .any.text.controller_query_data
                0x0000000000000000       0x8c contiki-exp5438.a(usdn-engine.o)
 .text          0x0000000000000000        0x0 contiki-exp5438.a(autostart.o)
 .data          0x0000000000000000        0x0 contiki-exp5438.a(autostart.o)
 .bss           0x0000000000000000        0x0 contiki-exp5438.a(autostart.o)
 .any.text.autostart_exit
                0x0000000000000000       0x14 contiki-exp5438.a(autostart.o)
 .text          0x0000000000000000        0x0 contiki-exp5438.a(energest.o)
 .data          0x0000000000000000        0x0 contiki-exp5438.a(energest.o)
 .bss           0x0000000000000000        0x0 contiki-exp5438.a(energest.o)
 .any.text.energest_leveldevice_leveltime
                0x0000000000000000        0x6 contiki-exp5438.a(energest.o)
 .text          0x0000000000000000        0x0 contiki-exp5438.a(etimer.o)
 .data          0x0000000000000000        0x0 contiki-exp5438.a(etimer.o)
 .bss           0x0000000000000000        0x0 contiki-exp5438.a(etimer.o)
 .any.text.etimer_reset_with_new_interval
                0x0000000000000000       0x1e contiki-exp5438.a(etimer.o)
 .any.text.etimer_adjust
                0x0000000000000000       0x1a contiki-exp5438.a(etimer.o)
 .any.text.etimer_start_time
                0x0000000000000000        0x8 contiki-exp5438.a(etimer.o)
 .text          0x0000000000000000        0x0 contiki-exp5438.a(log-ng.o)
 .data          0x0000000000000000        0x0 contiki-exp5438.a(log-ng.o)
 .bss           0x0000000000000000        0x0 contiki-exp5438.a(log-ng.o)
 .rodata.log_6addr_compact
                0x0000000000000000       0x20 contiki-exp5438.a(log-ng.o)
 .any.text.log_6addr_compact
                0x0000000000000000       0x5e contiki-exp5438.a(log-ng.o)
 .rodata.log_lladdr
                0x0000000000000000       0x14 contiki-exp5438.a(log-ng.o)
 .any.text.log_lladdr
                0x0000000000000000       0x40 contiki-exp5438.a(log-ng.o)
 .rodata.log_lladdr_compact
                0x0000000000000000       0x10 contiki-exp5438.a(log-ng.o)
 .any.text.log_lladdr_compact
                0x0000000000000000       0x3e contiki-exp5438.a(log-ng.o)
 .rodata.log_set_level
                0x0000000000000000        0x4 contiki-exp5438.a(log-ng.o)
 .any.text.log_set_level
                0x0000000000000000       0x4c contiki-exp5438.a(log-ng.o)
 .any.text.log_get_level
                0x0000000000000000       0x42 contiki-exp5438.a(log-ng.o)
 .rodata.log_level_to_str
                0x0000000000000000        0x4 contiki-exp5438.a(log-ng.o)
 .any.text.log_level_to_str
                0x0000000000000000       0x14 contiki-exp5438.a(log-ng.o)
 .rodata        0x0000000000000000       0x6e contiki-exp5438.a(log-ng.o)
 .data.all_modules
                0x0000000000000000       0x54 contiki-exp5438.a(log-ng.o)
 .data.curr_log_level_main
                0x0000000000000000        0x2 contiki-exp5438.a(log-ng.o)
 .bss.curr_log_level_lwm2m
                0x0000000000000000        0x2 contiki-exp5438.a(log-ng.o)
 .bss.curr_log_level_coap
                0x0000000000000000        0x2 contiki-exp5438.a(log-ng.o)
 .bss.curr_log_level_6top
                0x0000000000000000        0x2 contiki-exp5438.a(log-ng.o)
 .bss.curr_log_level_framer
                0x0000000000000000        0x2 contiki-exp5438.a(log-ng.o)
 .bss.curr_log_level_mac
                0x0000000000000000        0x2 contiki-exp5438.a(log-ng.o)
 .bss.curr_log_level_nullnet
                0x0000000000000000        0x2 contiki-exp5438.a(log-ng.o)
 .bss.curr_log_level_6lowpan
                0x0000000000000000        0x2 contiki-exp5438.a(log-ng.o)
 .bss.curr_log_level_ipv6
                0x0000000000000000        0x2 contiki-exp5438.a(log-ng.o)
 .bss.curr_log_level_tcpip
                0x0000000000000000        0x2 contiki-exp5438.a(log-ng.o)
 .bss.curr_log_level_rpl
                0x0000000000000000        0x2 contiki-exp5438.a(log-ng.o)
 .rodata.CSWTCH.9
                0x0000000000000000        0xc contiki-exp5438.a(log-ng.o)
 .text          0x0000000000000000        0x0 contiki-exp5438.a(ctimer.o)
 .data          0x0000000000000000        0x0 contiki-exp5438.a(ctimer.o)
 .bss           0x0000000000000000        0x0 contiki-exp5438.a(ctimer.o)
 .any.text.ctimer_expired
                0x0000000000000000       0x30 contiki-exp5438.a(ctimer.o)
 .text          0x0000000000000000        0x0 contiki-exp5438.a(process.o)
 .data          0x0000000000000000        0x0 contiki-exp5438.a(process.o)
 .bss           0x0000000000000000        0x0 contiki-exp5438.a(process.o)
 .any.text.process_exit
                0x0000000000000000        0xa contiki-exp5438.a(process.o)
 .any.text.process_is_running
                0x0000000000000000        0xe contiki-exp5438.a(process.o)
 .text          0x0000000000000000        0x0 contiki-exp5438.a(rtimer.o)
 .data          0x0000000000000000        0x0 contiki-exp5438.a(rtimer.o)
 .bss           0x0000000000000000        0x0 contiki-exp5438.a(rtimer.o)
 .any.text.rtimer_set
                0x0000000000000000       0x24 contiki-exp5438.a(rtimer.o)
 .text          0x0000000000000000        0x0 contiki-exp5438.a(timer.o)
 .data          0x0000000000000000        0x0 contiki-exp5438.a(timer.o)
 .bss           0x0000000000000000        0x0 contiki-exp5438.a(timer.o)
 .any.text.timer_remaining
                0x0000000000000000       0x24 contiki-exp5438.a(timer.o)
 .text          0x0000000000000000        0x0 contiki-exp5438.a(list.o)
 .data          0x0000000000000000        0x0 contiki-exp5438.a(list.o)
 .bss           0x0000000000000000        0x0 contiki-exp5438.a(list.o)
 .any.text.list_copy
                0x0000000000000000        0x6 contiki-exp5438.a(list.o)
 .any.text.list_chop
                0x0000000000000000       0x1a contiki-exp5438.a(list.o)
 .any.text.list_pop
                0x0000000000000000        0xe contiki-exp5438.a(list.o)
 .any.text.list_insert
                0x0000000000000000       0x16 contiki-exp5438.a(list.o)
 .text          0x0000000000000000        0x0 contiki-exp5438.a(memb.o)
 .data          0x0000000000000000        0x0 contiki-exp5438.a(memb.o)
 .bss           0x0000000000000000        0x0 contiki-exp5438.a(memb.o)
 .any.text.memb_numfree
                0x0000000000000000       0x26 contiki-exp5438.a(memb.o)
 .text          0x0000000000000000        0x0 contiki-exp5438.a(random.o)
 .data          0x0000000000000000        0x0 contiki-exp5438.a(random.o)
 .bss           0x0000000000000000        0x0 contiki-exp5438.a(random.o)
 .any.text.random_init
                0x0000000000000000        0x6 contiki-exp5438.a(random.o)
 .text          0x0000000000000000        0x0 contiki-exp5438.a(uip-ds6.o)
 .data          0x0000000000000000        0x0 contiki-exp5438.a(uip-ds6.o)
 .bss           0x0000000000000000        0x0 contiki-exp5438.a(uip-ds6.o)
 .any.text.uip_ds6_prefix_rm
                0x0000000000000000        0xa contiki-exp5438.a(uip-ds6.o)
 .any.text.uip_ds6_prefix_lookup
                0x0000000000000000       0x28 contiki-exp5438.a(uip-ds6.o)
 .any.text.uip_ds6_get_global
                0x0000000000000000       0x3e contiki-exp5438.a(uip-ds6.o)
 .any.text.uip_ds6_aaddr_add
                0x0000000000000000       0x46 contiki-exp5438.a(uip-ds6.o)
 .any.text.uip_ds6_aaddr_rm
                0x0000000000000000        0xa contiki-exp5438.a(uip-ds6.o)
 .any.text.uip_ds6_aaddr_lookup
                0x0000000000000000       0x28 contiki-exp5438.a(uip-ds6.o)
 .bss.locaaddr  0x0000000000000000        0x2 contiki-exp5438.a(uip-ds6.o)
 .text          0x0000000000000000        0x0 contiki-exp5438.a(uip-ds6-route.o)
 .data          0x0000000000000000        0x0 contiki-exp5438.a(uip-ds6-route.o)
 .bss           0x0000000000000000        0x0 contiki-exp5438.a(uip-ds6-route.o)
 .any.text.uip_ds6_route_head
                0x0000000000000000        0x4 contiki-exp5438.a(uip-ds6-route.o)
 .any.text.uip_ds6_route_next
                0x0000000000000000        0x4 contiki-exp5438.a(uip-ds6-route.o)
 .any.text.uip_ds6_route_num_routes
                0x0000000000000000        0x4 contiki-exp5438.a(uip-ds6-route.o)
 .any.text.uip_ds6_route_add
                0x0000000000000000        0x4 contiki-exp5438.a(uip-ds6-route.o)
 .any.text.uip_ds6_route_rm_by_nexthop
                0x0000000000000000        0x2 contiki-exp5438.a(uip-ds6-route.o)
 .any.text.uip_ds6_defrt_head
                0x0000000000000000        0xa contiki-exp5438.a(uip-ds6-route.o)
 .text          0x0000000000000000        0x0 contiki-exp5438.a(uip6.o)
 .data          0x0000000000000000        0x0 contiki-exp5438.a(uip6.o)
 .bss           0x0000000000000000        0x0 contiki-exp5438.a(uip6.o)
 .any.text.uip_chksum
                0x0000000000000000       0x18 contiki-exp5438.a(uip6.o)
 .any.text.uip_htons
                0x0000000000000000        0xc contiki-exp5438.a(uip6.o)
 .any.text.uip_send
                0x0000000000000000       0x48 contiki-exp5438.a(uip6.o)
 .text          0x0000000000000000        0x0 contiki-exp5438.a(uip-ds6-nbr.o)
 .data          0x0000000000000000        0x0 contiki-exp5438.a(uip-ds6-nbr.o)
 .bss           0x0000000000000000        0x0 contiki-exp5438.a(uip-ds6-nbr.o)
 .any.text.uip_ds6_nbr_get_ipaddr
                0x0000000000000000        0x2 contiki-exp5438.a(uip-ds6-nbr.o)
 .text          0x0000000000000000        0x0 contiki-exp5438.a(uip-nd6.o)
 .data          0x0000000000000000        0x0 contiki-exp5438.a(uip-nd6.o)
 .bss           0x0000000000000000        0x0 contiki-exp5438.a(uip-nd6.o)
 .text          0x0000000000000000        0x0 contiki-exp5438.a(sicslowpan.o)
 .data          0x0000000000000000        0x0 contiki-exp5438.a(sicslowpan.o)
 .bss           0x0000000000000000        0x0 contiki-exp5438.a(sicslowpan.o)
 .any.text.rime_sniffer_add
                0x0000000000000000        0x6 contiki-exp5438.a(sicslowpan.o)
 .any.text.rime_sniffer_remove
                0x0000000000000000        0x6 contiki-exp5438.a(sicslowpan.o)
 .any.text.sicslowpan_get_last_rssi
                0x0000000000000000        0x6 contiki-exp5438.a(sicslowpan.o)
 .text          0x0000000000000000        0x0 contiki-exp5438.a(uip-debug.o)
 .data          0x0000000000000000        0x0 contiki-exp5438.a(uip-debug.o)
 .bss           0x0000000000000000        0x0 contiki-exp5438.a(uip-debug.o)
 .text          0x0000000000000000        0x0 contiki-exp5438.a(uip-udp-packet.)
 .data          0x0000000000000000        0x0 contiki-exp5438.a(uip-udp-packet.)
 .bss           0x0000000000000000        0x0 contiki-exp5438.a(uip-udp-packet.)
 .text          0x0000000000000000        0x0 contiki-exp5438.a(tcpip.o)
 .data          0x0000000000000000        0x0 contiki-exp5438.a(tcpip.o)
 .bss           0x0000000000000000        0x0 contiki-exp5438.a(tcpip.o)
 .any.text.udp_attach
                0x0000000000000000        0xc contiki-exp5438.a(tcpip.o)
 .any.text.udp_broadcast_new
                0x0000000000000000       0x46 contiki-exp5438.a(tcpip.o)
 .any.text.tcpip_poll_udp
                0x0000000000000000        0xe contiki-exp5438.a(tcpip.o)
 .text          0x0000000000000000        0x0 contiki-exp5438.a(simple-udp.o)
 .data          0x0000000000000000        0x0 contiki-exp5438.a(simple-udp.o)
 .bss           0x0000000000000000        0x0 contiki-exp5438.a(simple-udp.o)
 .any.text.simple_udp_send
                0x0000000000000000       0x2a contiki-exp5438.a(simple-udp.o)
 .any.text.simple_udp_sendto_port
                0x0000000000000000       0x26 contiki-exp5438.a(simple-udp.o)
 .text          0x0000000000000000        0x0 contiki-exp5438.a(rpl-ext-header.)
 .data          0x0000000000000000        0x0 contiki-exp5438.a(rpl-ext-header.)
 .bss           0x0000000000000000        0x0 contiki-exp5438.a(rpl-ext-header.)
 .text          0x0000000000000000        0x0 contiki-exp5438.a(rpl.o)
 .data          0x0000000000000000        0x0 contiki-exp5438.a(rpl.o)
 .bss           0x0000000000000000        0x0 contiki-exp5438.a(rpl.o)
 .any.text.rpl_set_mode
                0x0000000000000000       0x52 contiki-exp5438.a(rpl.o)
 .any.text.rpl_purge_routes
                0x0000000000000000       0x94 contiki-exp5438.a(rpl.o)
 .any.text.rpl_remove_routes
                0x0000000000000000       0x22 contiki-exp5438.a(rpl.o)
 .any.text.rpl_remove_routes_by_nexthop
                0x0000000000000000       0x3e contiki-exp5438.a(rpl.o)
 .any.text.rpl_add_route
                0x0000000000000000       0x5c contiki-exp5438.a(rpl.o)
 .text          0x0000000000000000        0x0 contiki-exp5438.a(rpl-ns.o)
 .data          0x0000000000000000        0x0 contiki-exp5438.a(rpl-ns.o)
 .bss           0x0000000000000000        0x0 contiki-exp5438.a(rpl-ns.o)
 .any.text.rpl_ns_num_nodes
                0x0000000000000000        0x6 contiki-exp5438.a(rpl-ns.o)
 .any.text.rpl_ns_node_head
                0x0000000000000000        0xa contiki-exp5438.a(rpl-ns.o)
 .any.text.rpl_ns_node_next
                0x0000000000000000        0x6 contiki-exp5438.a(rpl-ns.o)
 .text          0x0000000000000000        0x0 contiki-exp5438.a(rpl-dag.o)
 .data          0x0000000000000000        0x0 contiki-exp5438.a(rpl-dag.o)
 .bss           0x0000000000000000        0x0 contiki-exp5438.a(rpl-dag.o)
 .any.text.rpl_get_parent_rank
                0x0000000000000000       0x18 contiki-exp5438.a(rpl-dag.o)
 .any.text.rpl_get_parent_link_metric
                0x0000000000000000       0x2a contiki-exp5438.a(rpl-dag.o)
 .any.text.rpl_get_nbr
                0x0000000000000000       0x18 contiki-exp5438.a(rpl-dag.o)
 .rodata.rpl_print_neighbor_list
                0x0000000000000000       0x84 contiki-exp5438.a(rpl-dag.o)
 .any.text.rpl_print_neighbor_list
                0x0000000000000000      0x10e contiki-exp5438.a(rpl-dag.o)
 .any.text.rpl_parent_is_reachable
                0x0000000000000000       0x4a contiki-exp5438.a(rpl-dag.o)
 .any.text.rpl_set_default_instance
                0x0000000000000000        0x6 contiki-exp5438.a(rpl-dag.o)
 .any.text.rpl_get_default_instance
                0x0000000000000000        0x6 contiki-exp5438.a(rpl-dag.o)
 .any.text.rpl_free_instance
                0x0000000000000000       0x68 contiki-exp5438.a(rpl-dag.o)
 .any.text.rpl_has_downward_route
                0x0000000000000000       0x12 contiki-exp5438.a(rpl-dag.o)
 .text          0x0000000000000000        0x0 contiki-exp5438.a(rpl-dag-root.o)
 .data          0x0000000000000000        0x0 contiki-exp5438.a(rpl-dag-root.o)
 .bss           0x0000000000000000        0x0 contiki-exp5438.a(rpl-dag-root.o)
 .stab          0x0000000000000000      0xb28 contiki-exp5438.a(rpl-dag-root.o)
                                       0x1e60 (size before relaxing)
 .rodata.rpl_dag_root_init
                0x0000000000000000       0x11 contiki-exp5438.a(rpl-dag-root.o)
 .any.text.rpl_dag_root_init
                0x0000000000000000       0x98 contiki-exp5438.a(rpl-dag-root.o)
 .any.text.rpl_dag_root_init_dag_immediately
                0x0000000000000000       0xca contiki-exp5438.a(rpl-dag-root.o)
 .any.text.create_dag_callback
                0x0000000000000000       0x9c contiki-exp5438.a(rpl-dag-root.o)
 .any.text.rpl_dag_root_init_dag
                0x0000000000000000       0x26 contiki-exp5438.a(rpl-dag-root.o)
 .any.text.rpl_dag_root_is_root
                0x0000000000000000       0x24 contiki-exp5438.a(rpl-dag-root.o)
 .bss.initialized.5078
                0x0000000000000000        0x1 contiki-exp5438.a(rpl-dag-root.o)
 .bss.to_become_root
                0x0000000000000000        0x1 contiki-exp5438.a(rpl-dag-root.o)
 .bss.ipaddr.5069
                0x0000000000000000       0x10 contiki-exp5438.a(rpl-dag-root.o)
 .bss.c         0x0000000000000000       0x16 contiki-exp5438.a(rpl-dag-root.o)
 .comment       0x0000000000000000       0x31 contiki-exp5438.a(rpl-dag-root.o)
 .gnu.attributes
                0x0000000000000000       0x11 contiki-exp5438.a(rpl-dag-root.o)
 .text          0x0000000000000000        0x0 contiki-exp5438.a(queuebuf.o)
 .data          0x0000000000000000        0x0 contiki-exp5438.a(queuebuf.o)
 .bss           0x0000000000000000        0x0 contiki-exp5438.a(queuebuf.o)
 .any.text.queuebuf_numfree
                0x0000000000000000        0xa contiki-exp5438.a(queuebuf.o)
 .any.text.queuebuf_update_from_packetbuf
                0x0000000000000000       0x22 contiki-exp5438.a(queuebuf.o)
 .any.text.queuebuf_dataptr
                0x0000000000000000       0x1c contiki-exp5438.a(queuebuf.o)
 .any.text.queuebuf_datalen
                0x0000000000000000        0x8 contiki-exp5438.a(queuebuf.o)
 .any.text.queuebuf_addr
                0x0000000000000000        0xe contiki-exp5438.a(queuebuf.o)
 .any.text.queuebuf_debug_print
                0x0000000000000000        0x2 contiki-exp5438.a(queuebuf.o)
 .text          0x0000000000000000        0x0 contiki-exp5438.a(nbr-table.o)
 .data          0x0000000000000000        0x0 contiki-exp5438.a(nbr-table.o)
 .bss           0x0000000000000000        0x0 contiki-exp5438.a(nbr-table.o)
 .text          0x0000000000000000        0x0 contiki-exp5438.a(packetbuf.o)
 .data          0x0000000000000000        0x0 contiki-exp5438.a(packetbuf.o)
 .bss           0x0000000000000000        0x0 contiki-exp5438.a(packetbuf.o)
 .any.text.packetbuf_compact
                0x0000000000000000       0x3c contiki-exp5438.a(packetbuf.o)
 .any.text.packetbuf_remaininglen
                0x0000000000000000        0xe contiki-exp5438.a(packetbuf.o)
 .text          0x0000000000000000        0x0 contiki-exp5438.a(linkaddr.o)
 .data          0x0000000000000000        0x0 contiki-exp5438.a(linkaddr.o)
 .bss           0x0000000000000000        0x0 contiki-exp5438.a(linkaddr.o)
 .text          0x0000000000000000        0x0 contiki-exp5438.a(link-stats.o)
 .data          0x0000000000000000        0x0 contiki-exp5438.a(link-stats.o)
 .bss           0x0000000000000000        0x0 contiki-exp5438.a(link-stats.o)
 .any.text.guess_etx_from_rssi
                0x0000000000000000       0x42 contiki-exp5438.a(link-stats.o)
 .text          0x0000000000000000        0x0 contiki-exp5438.a(framer-802154.o)
 .data          0x0000000000000000        0x0 contiki-exp5438.a(framer-802154.o)
 .bss           0x0000000000000000        0x0 contiki-exp5438.a(framer-802154.o)
 .text          0x0000000000000000        0x0 contiki-exp5438.a(csma.o)
 .data          0x0000000000000000        0x0 contiki-exp5438.a(csma.o)
 .bss           0x0000000000000000        0x0 contiki-exp5438.a(csma.o)
 .text          0x0000000000000000        0x0 contiki-exp5438.a(frame802154.o)
 .data          0x0000000000000000        0x0 contiki-exp5438.a(frame802154.o)
 .bss           0x0000000000000000        0x0 contiki-exp5438.a(frame802154.o)
 .any.text.frame802154_set_pan_id
                0x0000000000000000        0x6 contiki-exp5438.a(frame802154.o)
 .any.text.frame802154_check_dest_panid
                0x0000000000000000       0x3a contiki-exp5438.a(frame802154.o)
 .any.text.frame802154_extract_linkaddr
                0x0000000000000000       0x8c contiki-exp5438.a(frame802154.o)
 .text          0x0000000000000000        0x0 contiki-exp5438.a(mac.o)
 .data          0x0000000000000000        0x0 contiki-exp5438.a(mac.o)
 .bss           0x0000000000000000        0x0 contiki-exp5438.a(mac.o)
 .text          0x0000000000000000        0x0 contiki-exp5438.a(nullrdc.o)
 .data          0x0000000000000000        0x0 contiki-exp5438.a(nullrdc.o)
 .bss           0x0000000000000000        0x0 contiki-exp5438.a(nullrdc.o)
 .text          0x0000000000000000        0x0 contiki-exp5438.a(nullsec.o)
 .data          0x0000000000000000        0x0 contiki-exp5438.a(nullsec.o)
 .bss           0x0000000000000000        0x0 contiki-exp5438.a(nullsec.o)
 .text          0x0000000000000000        0x0 contiki-exp5438.a(spix.o)
 .data          0x0000000000000000        0x0 contiki-exp5438.a(spix.o)
 .bss           0x0000000000000000        0x0 contiki-exp5438.a(spix.o)
 .text          0x0000000000000000        0x0 contiki-exp5438.a(sdn-ft.o)
 .data          0x0000000000000000        0x0 contiki-exp5438.a(sdn-ft.o)
 .bss           0x0000000000000000        0x0 contiki-exp5438.a(sdn-ft.o)
 .any.text.print_sdn_ft
                0x0000000000000000       0x36 contiki-exp5438.a(sdn-ft.o)
 .rodata.sdn_ft_contains
                0x0000000000000000        0xc contiki-exp5438.a(sdn-ft.o)
 .any.text.sdn_ft_contains
                0x0000000000000000       0x70 contiki-exp5438.a(sdn-ft.o)
 .text          0x0000000000000000        0x0 contiki-exp5438.a(sdn-cd.o)
 .data          0x0000000000000000        0x0 contiki-exp5438.a(sdn-cd.o)
 .bss           0x0000000000000000        0x0 contiki-exp5438.a(sdn-cd.o)
 .rodata.sdn_cd_rm
                0x0000000000000000       0x2a contiki-exp5438.a(sdn-cd.o)
 .any.text.sdn_cd_rm
                0x0000000000000000       0x96 contiki-exp5438.a(sdn-cd.o)
 .any.text.sdn_cd_lookup
                0x0000000000000000       0x32 contiki-exp5438.a(sdn-cd.o)
 .text          0x0000000000000000        0x0 contiki-exp5438.a(sdn-ext-header.)
 .data          0x0000000000000000        0x0 contiki-exp5438.a(sdn-ext-header.)
 .bss           0x0000000000000000        0x0 contiki-exp5438.a(sdn-ext-header.)
 .text          0x0000000000000000        0x0 contiki-exp5438.a(sdn-packetbuf.o)
 .data          0x0000000000000000        0x0 contiki-exp5438.a(sdn-packetbuf.o)
 .bss           0x0000000000000000        0x0 contiki-exp5438.a(sdn-packetbuf.o)
 .rodata.sdn_pbuf_find
                0x0000000000000000       0x27 contiki-exp5438.a(sdn-packetbuf.o)
 .any.text.sdn_pbuf_find
                0x0000000000000000       0x4a contiki-exp5438.a(sdn-packetbuf.o)
 .any.text.sdn_pbuf_length
                0x0000000000000000        0x6 contiki-exp5438.a(sdn-packetbuf.o)
 .any.text.print_sdn_pbuf_packet
                0x0000000000000000        0x2 contiki-exp5438.a(sdn-packetbuf.o)
 .rodata.sdn_pbuf_contains
                0x0000000000000000       0x21 contiki-exp5438.a(sdn-packetbuf.o)
 .any.text.sdn_pbuf_contains
                0x0000000000000000       0xb2 contiki-exp5438.a(sdn-packetbuf.o)
 .any.text.print_sdn_pbuf
                0x0000000000000000       0x10 contiki-exp5438.a(sdn-packetbuf.o)
 .bss.q.4287    0x0000000000000000      0x112 contiki-exp5438.a(sdn-packetbuf.o)
 .text          0x0000000000000000        0x0 contiki-exp5438.a(stimer.o)
 .data          0x0000000000000000        0x0 contiki-exp5438.a(stimer.o)
 .bss           0x0000000000000000        0x0 contiki-exp5438.a(stimer.o)
 .any.text.stimer_reset
                0x0000000000000000        0xe contiki-exp5438.a(stimer.o)
 .any.text.stimer_restart
                0x0000000000000000       0x14 contiki-exp5438.a(stimer.o)
 .any.text.stimer_remaining
                0x0000000000000000       0x24 contiki-exp5438.a(stimer.o)
 .any.text.stimer_elapsed
                0x0000000000000000       0x12 contiki-exp5438.a(stimer.o)
 .text          0x0000000000000000        0x0 contiki-exp5438.a(uip-icmp6.o)
 .data          0x0000000000000000        0x0 contiki-exp5438.a(uip-icmp6.o)
 .bss           0x0000000000000000        0x0 contiki-exp5438.a(uip-icmp6.o)
 .any.text.uip_icmp6_echo_reply_callback_add
                0x0000000000000000       0x18 contiki-exp5438.a(uip-icmp6.o)
 .any.text.uip_icmp6_echo_reply_callback_rm
                0x0000000000000000        0xc contiki-exp5438.a(uip-icmp6.o)
 .text          0x0000000000000000        0x0 contiki-exp5438.a(rpl-icmp6.o)
 .data          0x0000000000000000        0x0 contiki-exp5438.a(rpl-icmp6.o)
 .bss           0x0000000000000000        0x0 contiki-exp5438.a(rpl-icmp6.o)
 .any.text.dao_ack_output
                0x0000000000000000        0x2 contiki-exp5438.a(rpl-icmp6.o)
 .text          0x0000000000000000        0x0 contiki-exp5438.a(rpl-sdn.o)
 .data          0x0000000000000000        0x0 contiki-exp5438.a(rpl-sdn.o)
 .bss           0x0000000000000000        0x0 contiki-exp5438.a(rpl-sdn.o)
 .any.text.register_dag_joined_callback
                0x0000000000000000        0x6 contiki-exp5438.a(rpl-sdn.o)
 .any.text.rpl_sdn_dag_joined_callback
                0x0000000000000000        0x6 contiki-exp5438.a(rpl-sdn.o)
 .any.text.rpl_sdn_set_instance_properties
                0x0000000000000000        0x2 contiki-exp5438.a(rpl-sdn.o)
 COMMON         0x0000000000000000        0x4 contiki-exp5438.a(rpl-sdn.o)
 .text          0x0000000000000000        0x0 contiki-exp5438.a(rpl-timers.o)
 .data          0x0000000000000000        0x0 contiki-exp5438.a(rpl-timers.o)
 .bss           0x0000000000000000        0x0 contiki-exp5438.a(rpl-timers.o)
 .any.text.rpl_schedule_dao_immediately
                0x0000000000000000        0xa contiki-exp5438.a(rpl-timers.o)
 .any.text.rpl_cancel_dao
                0x0000000000000000       0x1a contiki-exp5438.a(rpl-timers.o)
 .text          0x0000000000000000        0x0 contiki-exp5438.a(rpl-nbr-policy.)
 .data          0x0000000000000000        0x0 contiki-exp5438.a(rpl-nbr-policy.)
 .bss           0x0000000000000000        0x0 contiki-exp5438.a(rpl-nbr-policy.)
 .text          0x0000000000000000        0x0 contiki-exp5438.a(rpl-mrhof.o)
 .data          0x0000000000000000        0x0 contiki-exp5438.a(rpl-mrhof.o)
 .bss           0x0000000000000000        0x0 contiki-exp5438.a(rpl-mrhof.o)
 .text          0x0000000000000000        0x0 contiki-exp5438.a(mac-sequence.o)
 .data          0x0000000000000000        0x0 contiki-exp5438.a(mac-sequence.o)
 .bss           0x0000000000000000        0x0 contiki-exp5438.a(mac-sequence.o)
 .text          0x0000000000000000        0x0 /home/mkulkarni/opt/compiler/mspgcc-4.7.3/bin/../lib/gcc/msp430/4.7.3/mcpu-430x/mmpy-16/msr20/mc20/libgcc.a(_udivmod16.o)
 .data          0x0000000000000000        0x0 /home/mkulkarni/opt/compiler/mspgcc-4.7.3/bin/../lib/gcc/msp430/4.7.3/mcpu-430x/mmpy-16/msr20/mc20/libgcc.a(_udivmod16.o)
 .bss           0x0000000000000000        0x0 /home/mkulkarni/opt/compiler/mspgcc-4.7.3/bin/../lib/gcc/msp430/4.7.3/mcpu-430x/mmpy-16/msr20/mc20/libgcc.a(_udivmod16.o)
 .text          0x0000000000000000        0x0 /home/mkulkarni/opt/compiler/mspgcc-4.7.3/bin/../lib/gcc/msp430/4.7.3/mcpu-430x/mmpy-16/msr20/mc20/libgcc.a(_divmod16.o)
 .data          0x0000000000000000        0x0 /home/mkulkarni/opt/compiler/mspgcc-4.7.3/bin/../lib/gcc/msp430/4.7.3/mcpu-430x/mmpy-16/msr20/mc20/libgcc.a(_divmod16.o)
 .bss           0x0000000000000000        0x0 /home/mkulkarni/opt/compiler/mspgcc-4.7.3/bin/../lib/gcc/msp430/4.7.3/mcpu-430x/mmpy-16/msr20/mc20/libgcc.a(_divmod16.o)
 .text          0x0000000000000000        0x0 /home/mkulkarni/opt/compiler/mspgcc-4.7.3/bin/../lib/gcc/msp430/4.7.3/mcpu-430x/mmpy-16/msr20/mc20/libgcc.a(_udivmod32.o)
 .data          0x0000000000000000        0x0 /home/mkulkarni/opt/compiler/mspgcc-4.7.3/bin/../lib/gcc/msp430/4.7.3/mcpu-430x/mmpy-16/msr20/mc20/libgcc.a(_udivmod32.o)
 .bss           0x0000000000000000        0x0 /home/mkulkarni/opt/compiler/mspgcc-4.7.3/bin/../lib/gcc/msp430/4.7.3/mcpu-430x/mmpy-16/msr20/mc20/libgcc.a(_udivmod32.o)
 .text          0x0000000000000000        0x0 /home/mkulkarni/opt/compiler/mspgcc-4.7.3/bin/../lib/gcc/msp430/4.7.3/mcpu-430x/mmpy-16/msr20/mc20/libgcc.a(_divmod32.o)
 .data          0x0000000000000000        0x0 /home/mkulkarni/opt/compiler/mspgcc-4.7.3/bin/../lib/gcc/msp430/4.7.3/mcpu-430x/mmpy-16/msr20/mc20/libgcc.a(_divmod32.o)
 .bss           0x0000000000000000        0x0 /home/mkulkarni/opt/compiler/mspgcc-4.7.3/bin/../lib/gcc/msp430/4.7.3/mcpu-430x/mmpy-16/msr20/mc20/libgcc.a(_divmod32.o)
 .text          0x0000000000000000        0x0 /home/mkulkarni/opt/compiler/mspgcc-4.7.3/bin/../lib/gcc/msp430/4.7.3/mcpu-430x/mmpy-16/msr20/mc20/libgcc.a(_fixunssfsi.o)
 .data          0x0000000000000000        0x0 /home/mkulkarni/opt/compiler/mspgcc-4.7.3/bin/../lib/gcc/msp430/4.7.3/mcpu-430x/mmpy-16/msr20/mc20/libgcc.a(_fixunssfsi.o)
 .bss           0x0000000000000000        0x0 /home/mkulkarni/opt/compiler/mspgcc-4.7.3/bin/../lib/gcc/msp430/4.7.3/mcpu-430x/mmpy-16/msr20/mc20/libgcc.a(_fixunssfsi.o)
 .text          0x0000000000000000        0x0 /home/mkulkarni/opt/compiler/mspgcc-4.7.3/bin/../lib/gcc/msp430/4.7.3/mcpu-430x/mmpy-16/msr20/mc20/libgcc.a(_addsub_sf.o)
 .data          0x0000000000000000        0x0 /home/mkulkarni/opt/compiler/mspgcc-4.7.3/bin/../lib/gcc/msp430/4.7.3/mcpu-430x/mmpy-16/msr20/mc20/libgcc.a(_addsub_sf.o)
 .bss           0x0000000000000000        0x0 /home/mkulkarni/opt/compiler/mspgcc-4.7.3/bin/../lib/gcc/msp430/4.7.3/mcpu-430x/mmpy-16/msr20/mc20/libgcc.a(_addsub_sf.o)
 .text          0x0000000000000000        0x0 /home/mkulkarni/opt/compiler/mspgcc-4.7.3/bin/../lib/gcc/msp430/4.7.3/mcpu-430x/mmpy-16/msr20/mc20/libgcc.a(_mul_sf.o)
 .data          0x0000000000000000        0x0 /home/mkulkarni/opt/compiler/mspgcc-4.7.3/bin/../lib/gcc/msp430/4.7.3/mcpu-430x/mmpy-16/msr20/mc20/libgcc.a(_mul_sf.o)
 .bss           0x0000000000000000        0x0 /home/mkulkarni/opt/compiler/mspgcc-4.7.3/bin/../lib/gcc/msp430/4.7.3/mcpu-430x/mmpy-16/msr20/mc20/libgcc.a(_mul_sf.o)
 .text          0x0000000000000000        0x0 /home/mkulkarni/opt/compiler/mspgcc-4.7.3/bin/../lib/gcc/msp430/4.7.3/mcpu-430x/mmpy-16/msr20/mc20/libgcc.a(_ge_sf.o)
 .data          0x0000000000000000        0x0 /home/mkulkarni/opt/compiler/mspgcc-4.7.3/bin/../lib/gcc/msp430/4.7.3/mcpu-430x/mmpy-16/msr20/mc20/libgcc.a(_ge_sf.o)
 .bss           0x0000000000000000        0x0 /home/mkulkarni/opt/compiler/mspgcc-4.7.3/bin/../lib/gcc/msp430/4.7.3/mcpu-430x/mmpy-16/msr20/mc20/libgcc.a(_ge_sf.o)
 .text          0x0000000000000000        0x0 /home/mkulkarni/opt/compiler/mspgcc-4.7.3/bin/../lib/gcc/msp430/4.7.3/mcpu-430x/mmpy-16/msr20/mc20/libgcc.a(_sf_to_si.o)
 .data          0x0000000000000000        0x0 /home/mkulkarni/opt/compiler/mspgcc-4.7.3/bin/../lib/gcc/msp430/4.7.3/mcpu-430x/mmpy-16/msr20/mc20/libgcc.a(_sf_to_si.o)
 .bss           0x0000000000000000        0x0 /home/mkulkarni/opt/compiler/mspgcc-4.7.3/bin/../lib/gcc/msp430/4.7.3/mcpu-430x/mmpy-16/msr20/mc20/libgcc.a(_sf_to_si.o)
 .text          0x0000000000000000        0x0 /home/mkulkarni/opt/compiler/mspgcc-4.7.3/bin/../lib/gcc/msp430/4.7.3/mcpu-430x/mmpy-16/msr20/mc20/libgcc.a(_thenan_sf.o)
 .data          0x0000000000000000        0x0 /home/mkulkarni/opt/compiler/mspgcc-4.7.3/bin/../lib/gcc/msp430/4.7.3/mcpu-430x/mmpy-16/msr20/mc20/libgcc.a(_thenan_sf.o)
 .bss           0x0000000000000000        0x0 /home/mkulkarni/opt/compiler/mspgcc-4.7.3/bin/../lib/gcc/msp430/4.7.3/mcpu-430x/mmpy-16/msr20/mc20/libgcc.a(_thenan_sf.o)
 .text          0x0000000000000000        0x0 /home/mkulkarni/opt/compiler/mspgcc-4.7.3/bin/../lib/gcc/msp430/4.7.3/mcpu-430x/mmpy-16/msr20/mc20/libgcc.a(_usi_to_sf.o)
 .data          0x0000000000000000        0x0 /home/mkulkarni/opt/compiler/mspgcc-4.7.3/bin/../lib/gcc/msp430/4.7.3/mcpu-430x/mmpy-16/msr20/mc20/libgcc.a(_usi_to_sf.o)
 .bss           0x0000000000000000        0x0 /home/mkulkarni/opt/compiler/mspgcc-4.7.3/bin/../lib/gcc/msp430/4.7.3/mcpu-430x/mmpy-16/msr20/mc20/libgcc.a(_usi_to_sf.o)
 .text          0x0000000000000000        0x0 /home/mkulkarni/opt/compiler/mspgcc-4.7.3/bin/../lib/gcc/msp430/4.7.3/mcpu-430x/mmpy-16/msr20/mc20/libgcc.a(_clzsi2.o)
 .data          0x0000000000000000        0x0 /home/mkulkarni/opt/compiler/mspgcc-4.7.3/bin/../lib/gcc/msp430/4.7.3/mcpu-430x/mmpy-16/msr20/mc20/libgcc.a(_clzsi2.o)
 .bss           0x0000000000000000        0x0 /home/mkulkarni/opt/compiler/mspgcc-4.7.3/bin/../lib/gcc/msp430/4.7.3/mcpu-430x/mmpy-16/msr20/mc20/libgcc.a(_clzsi2.o)
 .text          0x0000000000000000        0x0 /home/mkulkarni/opt/compiler/mspgcc-4.7.3/bin/../lib/gcc/msp430/4.7.3/mcpu-430x/mmpy-16/msr20/mc20/libgcc.a(_pack_sf.o)
 .data          0x0000000000000000        0x0 /home/mkulkarni/opt/compiler/mspgcc-4.7.3/bin/../lib/gcc/msp430/4.7.3/mcpu-430x/mmpy-16/msr20/mc20/libgcc.a(_pack_sf.o)
 .bss           0x0000000000000000        0x0 /home/mkulkarni/opt/compiler/mspgcc-4.7.3/bin/../lib/gcc/msp430/4.7.3/mcpu-430x/mmpy-16/msr20/mc20/libgcc.a(_pack_sf.o)
 .text          0x0000000000000000        0x0 /home/mkulkarni/opt/compiler/mspgcc-4.7.3/bin/../lib/gcc/msp430/4.7.3/mcpu-430x/mmpy-16/msr20/mc20/libgcc.a(_unpack_sf.o)
 .data          0x0000000000000000        0x0 /home/mkulkarni/opt/compiler/mspgcc-4.7.3/bin/../lib/gcc/msp430/4.7.3/mcpu-430x/mmpy-16/msr20/mc20/libgcc.a(_unpack_sf.o)
 .bss           0x0000000000000000        0x0 /home/mkulkarni/opt/compiler/mspgcc-4.7.3/bin/../lib/gcc/msp430/4.7.3/mcpu-430x/mmpy-16/msr20/mc20/libgcc.a(_unpack_sf.o)
 .text          0x0000000000000000        0x0 /home/mkulkarni/opt/compiler/mspgcc-4.7.3/bin/../lib/gcc/msp430/4.7.3/mcpu-430x/mmpy-16/msr20/mc20/libgcc.a(_fpcmp_parts_sf.o)
 .data          0x0000000000000000        0x0 /home/mkulkarni/opt/compiler/mspgcc-4.7.3/bin/../lib/gcc/msp430/4.7.3/mcpu-430x/mmpy-16/msr20/mc20/libgcc.a(_fpcmp_parts_sf.o)
 .bss           0x0000000000000000        0x0 /home/mkulkarni/opt/compiler/mspgcc-4.7.3/bin/../lib/gcc/msp430/4.7.3/mcpu-430x/mmpy-16/msr20/mc20/libgcc.a(_fpcmp_parts_sf.o)
 .text          0x0000000000000000        0x0 /home/mkulkarni/opt/compiler/mspgcc-4.7.3/bin/../lib/gcc/msp430/4.7.3/mcpu-430x/mmpy-16/msr20/mc20/libgcc.a(_clz.o)
 .data          0x0000000000000000        0x0 /home/mkulkarni/opt/compiler/mspgcc-4.7.3/bin/../lib/gcc/msp430/4.7.3/mcpu-430x/mmpy-16/msr20/mc20/libgcc.a(_clz.o)
 .bss           0x0000000000000000        0x0 /home/mkulkarni/opt/compiler/mspgcc-4.7.3/bin/../lib/gcc/msp430/4.7.3/mcpu-430x/mmpy-16/msr20/mc20/libgcc.a(_clz.o)
 .text          0x0000000000000000        0x0 /home/mkulkarni/opt/compiler/mspgcc-4.7.3/bin/../lib/gcc/msp430/4.7.3/../../../../msp430/lib/mcpu-430x/mmpy-16/msr20/mc20/libc.a(printf.o)
 .data          0x0000000000000000        0x0 /home/mkulkarni/opt/compiler/mspgcc-4.7.3/bin/../lib/gcc/msp430/4.7.3/../../../../msp430/lib/mcpu-430x/mmpy-16/msr20/mc20/libc.a(printf.o)
 .bss           0x0000000000000000        0x0 /home/mkulkarni/opt/compiler/mspgcc-4.7.3/bin/../lib/gcc/msp430/4.7.3/../../../../msp430/lib/mcpu-430x/mmpy-16/msr20/mc20/libc.a(printf.o)
 .any.text.vprintf
                0x0000000000000000        0xe /home/mkulkarni/opt/compiler/mspgcc-4.7.3/bin/../lib/gcc/msp430/4.7.3/../../../../msp430/lib/mcpu-430x/mmpy-16/msr20/mc20/libc.a(printf.o)
 .text          0x0000000000000000        0x0 /home/mkulkarni/opt/compiler/mspgcc-4.7.3/bin/../lib/gcc/msp430/4.7.3/../../../../msp430/lib/mcpu-430x/mmpy-16/msr20/mc20/libc.a(vuprintf.o)
 .data          0x0000000000000000        0x0 /home/mkulkarni/opt/compiler/mspgcc-4.7.3/bin/../lib/gcc/msp430/4.7.3/../../../../msp430/lib/mcpu-430x/mmpy-16/msr20/mc20/libc.a(vuprintf.o)
 .bss           0x0000000000000000        0x0 /home/mkulkarni/opt/compiler/mspgcc-4.7.3/bin/../lib/gcc/msp430/4.7.3/../../../../msp430/lib/mcpu-430x/mmpy-16/msr20/mc20/libc.a(vuprintf.o)
 .text          0x0000000000000000        0x0 /home/mkulkarni/opt/compiler/mspgcc-4.7.3/bin/../lib/gcc/msp430/4.7.3/../../../../msp430/lib/mcpu-430x/mmpy-16/msr20/mc20/libc.a(puts.o)
 .data          0x0000000000000000        0x0 /home/mkulkarni/opt/compiler/mspgcc-4.7.3/bin/../lib/gcc/msp430/4.7.3/../../../../msp430/lib/mcpu-430x/mmpy-16/msr20/mc20/libc.a(puts.o)
 .bss           0x0000000000000000        0x0 /home/mkulkarni/opt/compiler/mspgcc-4.7.3/bin/../lib/gcc/msp430/4.7.3/../../../../msp430/lib/mcpu-430x/mmpy-16/msr20/mc20/libc.a(puts.o)
 .text          0x0000000000000000        0x0 /home/mkulkarni/opt/compiler/mspgcc-4.7.3/bin/../lib/gcc/msp430/4.7.3/../../../../msp430/lib/mcpu-430x/mmpy-16/msr20/mc20/libc.a(rand.o)
 .data          0x0000000000000000        0x0 /home/mkulkarni/opt/compiler/mspgcc-4.7.3/bin/../lib/gcc/msp430/4.7.3/../../../../msp430/lib/mcpu-430x/mmpy-16/msr20/mc20/libc.a(rand.o)
 .bss           0x0000000000000000        0x0 /home/mkulkarni/opt/compiler/mspgcc-4.7.3/bin/../lib/gcc/msp430/4.7.3/../../../../msp430/lib/mcpu-430x/mmpy-16/msr20/mc20/libc.a(rand.o)
 .any.text.rand_r
                0x0000000000000000       0x24 /home/mkulkarni/opt/compiler/mspgcc-4.7.3/bin/../lib/gcc/msp430/4.7.3/../../../../msp430/lib/mcpu-430x/mmpy-16/msr20/mc20/libc.a(rand.o)
 .any.text.srand
                0x0000000000000000        0xa /home/mkulkarni/opt/compiler/mspgcc-4.7.3/bin/../lib/gcc/msp430/4.7.3/../../../../msp430/lib/mcpu-430x/mmpy-16/msr20/mc20/libc.a(rand.o)
 .text          0x0000000000000000        0x0 /home/mkulkarni/opt/compiler/mspgcc-4.7.3/bin/../lib/gcc/msp430/4.7.3/../../../../msp430/lib/mcpu-430x/mmpy-16/msr20/mc20/libc.a(strcmp.o)
 .data          0x0000000000000000        0x0 /home/mkulkarni/opt/compiler/mspgcc-4.7.3/bin/../lib/gcc/msp430/4.7.3/../../../../msp430/lib/mcpu-430x/mmpy-16/msr20/mc20/libc.a(strcmp.o)
 .bss           0x0000000000000000        0x0 /home/mkulkarni/opt/compiler/mspgcc-4.7.3/bin/../lib/gcc/msp430/4.7.3/../../../../msp430/lib/mcpu-430x/mmpy-16/msr20/mc20/libc.a(strcmp.o)
 .any.text.strcmp
                0x0000000000000000       0x1e /home/mkulkarni/opt/compiler/mspgcc-4.7.3/bin/../lib/gcc/msp430/4.7.3/../../../../msp430/lib/mcpu-430x/mmpy-16/msr20/mc20/libc.a(strcmp.o)
 .debug_frame   0x0000000000000000       0x24 /home/mkulkarni/opt/compiler/mspgcc-4.7.3/bin/../lib/gcc/msp430/4.7.3/../../../../msp430/lib/mcpu-430x/mmpy-16/msr20/mc20/libc.a(strcmp.o)
 .debug_info    0x0000000000000000       0xbf /home/mkulkarni/opt/compiler/mspgcc-4.7.3/bin/../lib/gcc/msp430/4.7.3/../../../../msp430/lib/mcpu-430x/mmpy-16/msr20/mc20/libc.a(strcmp.o)
 .debug_abbrev  0x0000000000000000       0x65 /home/mkulkarni/opt/compiler/mspgcc-4.7.3/bin/../lib/gcc/msp430/4.7.3/../../../../msp430/lib/mcpu-430x/mmpy-16/msr20/mc20/libc.a(strcmp.o)
 .debug_loc     0x0000000000000000       0x52 /home/mkulkarni/opt/compiler/mspgcc-4.7.3/bin/../lib/gcc/msp430/4.7.3/../../../../msp430/lib/mcpu-430x/mmpy-16/msr20/mc20/libc.a(strcmp.o)
 .debug_aranges
                0x0000000000000000       0x20 /home/mkulkarni/opt/compiler/mspgcc-4.7.3/bin/../lib/gcc/msp430/4.7.3/../../../../msp430/lib/mcpu-430x/mmpy-16/msr20/mc20/libc.a(strcmp.o)
 .debug_ranges  0x0000000000000000       0x10 /home/mkulkarni/opt/compiler/mspgcc-4.7.3/bin/../lib/gcc/msp430/4.7.3/../../../../msp430/lib/mcpu-430x/mmpy-16/msr20/mc20/libc.a(strcmp.o)
 .debug_line    0x0000000000000000       0x4b /home/mkulkarni/opt/compiler/mspgcc-4.7.3/bin/../lib/gcc/msp430/4.7.3/../../../../msp430/lib/mcpu-430x/mmpy-16/msr20/mc20/libc.a(strcmp.o)
 .debug_str     0x0000000000000000      0x10a /home/mkulkarni/opt/compiler/mspgcc-4.7.3/bin/../lib/gcc/msp430/4.7.3/../../../../msp430/lib/mcpu-430x/mmpy-16/msr20/mc20/libc.a(strcmp.o)
 .comment       0x0000000000000000       0x31 /home/mkulkarni/opt/compiler/mspgcc-4.7.3/bin/../lib/gcc/msp430/4.7.3/../../../../msp430/lib/mcpu-430x/mmpy-16/msr20/mc20/libc.a(strcmp.o)
 .gnu.attributes
                0x0000000000000000       0x11 /home/mkulkarni/opt/compiler/mspgcc-4.7.3/bin/../lib/gcc/msp430/4.7.3/../../../../msp430/lib/mcpu-430x/mmpy-16/msr20/mc20/libc.a(strcmp.o)
 .text          0x0000000000000000        0x0 /home/mkulkarni/opt/compiler/mspgcc-4.7.3/bin/../lib/gcc/msp430/4.7.3/../../../../msp430/lib/mcpu-430x/mmpy-16/msr20/mc20/libc.a(memcmp.o)
 .data          0x0000000000000000        0x0 /home/mkulkarni/opt/compiler/mspgcc-4.7.3/bin/../lib/gcc/msp430/4.7.3/../../../../msp430/lib/mcpu-430x/mmpy-16/msr20/mc20/libc.a(memcmp.o)
 .bss           0x0000000000000000        0x0 /home/mkulkarni/opt/compiler/mspgcc-4.7.3/bin/../lib/gcc/msp430/4.7.3/../../../../msp430/lib/mcpu-430x/mmpy-16/msr20/mc20/libc.a(memcmp.o)
 .text          0x0000000000000000        0x0 /home/mkulkarni/opt/compiler/mspgcc-4.7.3/bin/../lib/gcc/msp430/4.7.3/../../../../msp430/lib/mcpu-430x/mmpy-16/msr20/mc20/libc.a(memcpy.o)
 .data          0x0000000000000000        0x0 /home/mkulkarni/opt/compiler/mspgcc-4.7.3/bin/../lib/gcc/msp430/4.7.3/../../../../msp430/lib/mcpu-430x/mmpy-16/msr20/mc20/libc.a(memcpy.o)
 .bss           0x0000000000000000        0x0 /home/mkulkarni/opt/compiler/mspgcc-4.7.3/bin/../lib/gcc/msp430/4.7.3/../../../../msp430/lib/mcpu-430x/mmpy-16/msr20/mc20/libc.a(memcpy.o)
 .text          0x0000000000000000        0x0 /home/mkulkarni/opt/compiler/mspgcc-4.7.3/bin/../lib/gcc/msp430/4.7.3/../../../../msp430/lib/mcpu-430x/mmpy-16/msr20/mc20/libc.a(memmove.o)
 .data          0x0000000000000000        0x0 /home/mkulkarni/opt/compiler/mspgcc-4.7.3/bin/../lib/gcc/msp430/4.7.3/../../../../msp430/lib/mcpu-430x/mmpy-16/msr20/mc20/libc.a(memmove.o)
 .bss           0x0000000000000000        0x0 /home/mkulkarni/opt/compiler/mspgcc-4.7.3/bin/../lib/gcc/msp430/4.7.3/../../../../msp430/lib/mcpu-430x/mmpy-16/msr20/mc20/libc.a(memmove.o)
 .text          0x0000000000000000        0x0 /home/mkulkarni/opt/compiler/mspgcc-4.7.3/bin/../lib/gcc/msp430/4.7.3/../../../../msp430/lib/mcpu-430x/mmpy-16/msr20/mc20/libc.a(memset.o)
 .data          0x0000000000000000        0x0 /home/mkulkarni/opt/compiler/mspgcc-4.7.3/bin/../lib/gcc/msp430/4.7.3/../../../../msp430/lib/mcpu-430x/mmpy-16/msr20/mc20/libc.a(memset.o)
 .bss           0x0000000000000000        0x0 /home/mkulkarni/opt/compiler/mspgcc-4.7.3/bin/../lib/gcc/msp430/4.7.3/../../../../msp430/lib/mcpu-430x/mmpy-16/msr20/mc20/libc.a(memset.o)
 .text          0x0000000000000000        0x0 /home/mkulkarni/opt/compiler/mspgcc-4.7.3/bin/../lib/gcc/msp430/4.7.3/mcpu-430x/mmpy-16/msr20/mc20/libgcc.a(_mulsi3.o)
 .data          0x0000000000000000        0x0 /home/mkulkarni/opt/compiler/mspgcc-4.7.3/bin/../lib/gcc/msp430/4.7.3/mcpu-430x/mmpy-16/msr20/mc20/libgcc.a(_mulsi3.o)
 .bss           0x0000000000000000        0x0 /home/mkulkarni/opt/compiler/mspgcc-4.7.3/bin/../lib/gcc/msp430/4.7.3/mcpu-430x/mmpy-16/msr20/mc20/libgcc.a(_mulsi3.o)
 .text          0x0000000000000000        0x0 /home/mkulkarni/opt/compiler/mspgcc-4.7.3/bin/../lib/gcc/msp430/4.7.3/mcpu-430x/mmpy-16/msr20/mc20/libgcc.a(_udivmod64.o)
 .data          0x0000000000000000        0x0 /home/mkulkarni/opt/compiler/mspgcc-4.7.3/bin/../lib/gcc/msp430/4.7.3/mcpu-430x/mmpy-16/msr20/mc20/libgcc.a(_udivmod64.o)
 .bss           0x0000000000000000        0x0 /home/mkulkarni/opt/compiler/mspgcc-4.7.3/bin/../lib/gcc/msp430/4.7.3/mcpu-430x/mmpy-16/msr20/mc20/libgcc.a(_udivmod64.o)
 .text          0x0000000000000000        0x0 /home/mkulkarni/opt/compiler/mspgcc-4.7.3/bin/../lib/gcc/msp430/4.7.3/mcpu-430x/mmpy-16/msr20/mc20/libcrt0.a(_reset_vector__.o)
 .data          0x0000000000000000        0x0 /home/mkulkarni/opt/compiler/mspgcc-4.7.3/bin/../lib/gcc/msp430/4.7.3/mcpu-430x/mmpy-16/msr20/mc20/libcrt0.a(_reset_vector__.o)
 .bss           0x0000000000000000        0x0 /home/mkulkarni/opt/compiler/mspgcc-4.7.3/bin/../lib/gcc/msp430/4.7.3/mcpu-430x/mmpy-16/msr20/mc20/libcrt0.a(_reset_vector__.o)
 .text          0x0000000000000000        0x0 /home/mkulkarni/opt/compiler/mspgcc-4.7.3/bin/../lib/gcc/msp430/4.7.3/mcpu-430x/mmpy-16/msr20/mc20/libcrt0.a(__watchdog_support.o)
 .data          0x0000000000000000        0x0 /home/mkulkarni/opt/compiler/mspgcc-4.7.3/bin/../lib/gcc/msp430/4.7.3/mcpu-430x/mmpy-16/msr20/mc20/libcrt0.a(__watchdog_support.o)
 .bss           0x0000000000000000        0x0 /home/mkulkarni/opt/compiler/mspgcc-4.7.3/bin/../lib/gcc/msp430/4.7.3/mcpu-430x/mmpy-16/msr20/mc20/libcrt0.a(__watchdog_support.o)
 .text          0x0000000000000000        0x0 /home/mkulkarni/opt/compiler/mspgcc-4.7.3/bin/../lib/gcc/msp430/4.7.3/mcpu-430x/mmpy-16/msr20/mc20/libcrt0.a(__init_stack.o)
 .data          0x0000000000000000        0x0 /home/mkulkarni/opt/compiler/mspgcc-4.7.3/bin/../lib/gcc/msp430/4.7.3/mcpu-430x/mmpy-16/msr20/mc20/libcrt0.a(__init_stack.o)
 .bss           0x0000000000000000        0x0 /home/mkulkarni/opt/compiler/mspgcc-4.7.3/bin/../lib/gcc/msp430/4.7.3/mcpu-430x/mmpy-16/msr20/mc20/libcrt0.a(__init_stack.o)
 .text          0x0000000000000000        0x0 /home/mkulkarni/opt/compiler/mspgcc-4.7.3/bin/../lib/gcc/msp430/4.7.3/mcpu-430x/mmpy-16/msr20/mc20/libcrt0.a(__low_level_init.o)
 .data          0x0000000000000000        0x0 /home/mkulkarni/opt/compiler/mspgcc-4.7.3/bin/../lib/gcc/msp430/4.7.3/mcpu-430x/mmpy-16/msr20/mc20/libcrt0.a(__low_level_init.o)
 .bss           0x0000000000000000        0x0 /home/mkulkarni/opt/compiler/mspgcc-4.7.3/bin/../lib/gcc/msp430/4.7.3/mcpu-430x/mmpy-16/msr20/mc20/libcrt0.a(__low_level_init.o)
 .text          0x0000000000000000        0x0 /home/mkulkarni/opt/compiler/mspgcc-4.7.3/bin/../lib/gcc/msp430/4.7.3/mcpu-430x/mmpy-16/msr20/mc20/libcrt0.a(_copy_data.o)
 .data          0x0000000000000000        0x0 /home/mkulkarni/opt/compiler/mspgcc-4.7.3/bin/../lib/gcc/msp430/4.7.3/mcpu-430x/mmpy-16/msr20/mc20/libcrt0.a(_copy_data.o)
 .bss           0x0000000000000000        0x0 /home/mkulkarni/opt/compiler/mspgcc-4.7.3/bin/../lib/gcc/msp430/4.7.3/mcpu-430x/mmpy-16/msr20/mc20/libcrt0.a(_copy_data.o)
 .text          0x0000000000000000        0x0 /home/mkulkarni/opt/compiler/mspgcc-4.7.3/bin/../lib/gcc/msp430/4.7.3/mcpu-430x/mmpy-16/msr20/mc20/libcrt0.a(_clear_bss.o)
 .data          0x0000000000000000        0x0 /home/mkulkarni/opt/compiler/mspgcc-4.7.3/bin/../lib/gcc/msp430/4.7.3/mcpu-430x/mmpy-16/msr20/mc20/libcrt0.a(_clear_bss.o)
 .bss           0x0000000000000000        0x0 /home/mkulkarni/opt/compiler/mspgcc-4.7.3/bin/../lib/gcc/msp430/4.7.3/mcpu-430x/mmpy-16/msr20/mc20/libcrt0.a(_clear_bss.o)
 .text          0x0000000000000000        0x0 /home/mkulkarni/opt/compiler/mspgcc-4.7.3/bin/../lib/gcc/msp430/4.7.3/mcpu-430x/mmpy-16/msr20/mc20/libcrt0.a(__stop_progExec__.o)
 .data          0x0000000000000000        0x0 /home/mkulkarni/opt/compiler/mspgcc-4.7.3/bin/../lib/gcc/msp430/4.7.3/mcpu-430x/mmpy-16/msr20/mc20/libcrt0.a(__stop_progExec__.o)
 .bss           0x0000000000000000        0x0 /home/mkulkarni/opt/compiler/mspgcc-4.7.3/bin/../lib/gcc/msp430/4.7.3/mcpu-430x/mmpy-16/msr20/mc20/libcrt0.a(__stop_progExec__.o)
 .text          0x0000000000000000        0x0 /home/mkulkarni/opt/compiler/mspgcc-4.7.3/bin/../lib/gcc/msp430/4.7.3/mcpu-430x/mmpy-16/msr20/mc20/libcrt0.a(_endless_loop__.o)
 .data          0x0000000000000000        0x0 /home/mkulkarni/opt/compiler/mspgcc-4.7.3/bin/../lib/gcc/msp430/4.7.3/mcpu-430x/mmpy-16/msr20/mc20/libcrt0.a(_endless_loop__.o)
 .bss           0x0000000000000000        0x0 /home/mkulkarni/opt/compiler/mspgcc-4.7.3/bin/../lib/gcc/msp430/4.7.3/mcpu-430x/mmpy-16/msr20/mc20/libcrt0.a(_endless_loop__.o)
 .text          0x0000000000000000        0x0 /home/mkulkarni/opt/compiler/mspgcc-4.7.3/bin/../lib/gcc/msp430/4.7.3/mcpu-430x/mmpy-16/msr20/mc20/libcrt0.a(_unexpected_.o)
 .data          0x0000000000000000        0x0 /home/mkulkarni/opt/compiler/mspgcc-4.7.3/bin/../lib/gcc/msp430/4.7.3/mcpu-430x/mmpy-16/msr20/mc20/libcrt0.a(_unexpected_.o)
 .bss           0x0000000000000000        0x0 /home/mkulkarni/opt/compiler/mspgcc-4.7.3/bin/../lib/gcc/msp430/4.7.3/mcpu-430x/mmpy-16/msr20/mc20/libcrt0.a(_unexpected_.o)

Memory Configuration

Name             Origin             Length             Attributes
sfr              0x0000000000000000 0x0000000000000010
peripheral_8bit  0x0000000000000010 0x00000000000000f0
peripheral_16bit 0x0000000000000100 0x0000000000000100
bsl              0x0000000000001000 0x0000000000000800
infomem          0x0000000000001800 0x0000000000000200
infod            0x0000000000001800 0x0000000000000080
infoc            0x0000000000001880 0x0000000000000080
infob            0x0000000000001900 0x0000000000000080
infoa            0x0000000000001980 0x0000000000000080
ram              0x0000000000001c00 0x0000000000004000 xw
rom              0x0000000000005c00 0x000000000000a380 xr
vectors          0x000000000000ff80 0x0000000000000080
far_rom          0x0000000000010000 0x0000000000035c00
ram2             0x0000000000000000 0x0000000000000000 xw
ram_mirror       0x0000000000000000 0x0000000000000000 xw
usbram           0x0000000000000000 0x0000000000000000 xw
*default*        0x0000000000000000 0xffffffffffffffff

Linker script and memory map

LOAD /home/mkulkarni/opt/compiler/mspgcc-4.7.3/bin/../lib/gcc/msp430/4.7.3/mcpu-430x/mmpy-16/msr20/mc20/crt0ivtbl64.o
LOAD sdn-controller.co
LOAD obj_exp5438/sdn-stats.o
LOAD obj_exp5438/contiki-exp5438-main.o
LOAD contiki-exp5438.a
LOAD /home/mkulkarni/opt/compiler/mspgcc-4.7.3/bin/../lib/gcc/msp430/4.7.3/mcpu-430x/mmpy-16/msr20/mc20/libgcc.a
LOAD /home/mkulkarni/opt/compiler/mspgcc-4.7.3/bin/../lib/gcc/msp430/4.7.3/../../../../msp430/lib/mcpu-430x/mmpy-16/msr20/mc20/libc.a
LOAD /home/mkulkarni/opt/compiler/mspgcc-4.7.3/bin/../lib/gcc/msp430/4.7.3/mcpu-430x/mmpy-16/msr20/mc20/libgcc.a
LOAD /home/mkulkarni/opt/compiler/mspgcc-4.7.3/bin/../lib/gcc/msp430/4.7.3/mcpu-430x/mmpy-16/msr20/mc20/libcrt0.a
                0x0000000000000080                PROVIDE (__info_segment_size, 0x80)
                0x0000000000001800                PROVIDE (__infod, 0x1800)
                0x0000000000001880                PROVIDE (__infoc, 0x1880)
                0x0000000000001900                PROVIDE (__infob, 0x1900)
                0x0000000000001980                PROVIDE (__infoa, 0x1980)
                0x0000000000000700                __ADC12CTL0_L = 0x700
                0x0000000000000701                __ADC12CTL0_H = 0x701
                0x0000000000000700                __ADC12CTL0 = 0x700
                0x0000000000000702                __ADC12CTL1_L = 0x702
                0x0000000000000703                __ADC12CTL1_H = 0x703
                0x0000000000000702                __ADC12CTL1 = 0x702
                0x0000000000000704                __ADC12CTL2_L = 0x704
                0x0000000000000705                __ADC12CTL2_H = 0x705
                0x0000000000000704                __ADC12CTL2 = 0x704
                0x000000000000070a                __ADC12IFG_L = 0x70a
                0x000000000000070b                __ADC12IFG_H = 0x70b
                0x000000000000070a                __ADC12IFG = 0x70a
                0x000000000000070c                __ADC12IE_L = 0x70c
                0x000000000000070d                __ADC12IE_H = 0x70d
                0x000000000000070c                __ADC12IE = 0x70c
                0x000000000000070e                __ADC12IV_L = 0x70e
                0x000000000000070f                __ADC12IV_H = 0x70f
                0x000000000000070e                __ADC12IV = 0x70e
                0x0000000000000720                __ADC12MEM0_L = 0x720
                0x0000000000000721                __ADC12MEM0_H = 0x721
                0x0000000000000720                __ADC12MEM0 = 0x720
                0x0000000000000722                __ADC12MEM1_L = 0x722
                0x0000000000000723                __ADC12MEM1_H = 0x723
                0x0000000000000722                __ADC12MEM1 = 0x722
                0x0000000000000724                __ADC12MEM2_L = 0x724
                0x0000000000000725                __ADC12MEM2_H = 0x725
                0x0000000000000724                __ADC12MEM2 = 0x724
                0x0000000000000726                __ADC12MEM3_L = 0x726
                0x0000000000000727                __ADC12MEM3_H = 0x727
                0x0000000000000726                __ADC12MEM3 = 0x726
                0x0000000000000728                __ADC12MEM4_L = 0x728
                0x0000000000000729                __ADC12MEM4_H = 0x729
                0x0000000000000728                __ADC12MEM4 = 0x728
                0x000000000000072a                __ADC12MEM5_L = 0x72a
                0x000000000000072b                __ADC12MEM5_H = 0x72b
                0x000000000000072a                __ADC12MEM5 = 0x72a
                0x000000000000072c                __ADC12MEM6_L = 0x72c
                0x000000000000072d                __ADC12MEM6_H = 0x72d
                0x000000000000072c                __ADC12MEM6 = 0x72c
                0x000000000000072e                __ADC12MEM7_L = 0x72e
                0x000000000000072f                __ADC12MEM7_H = 0x72f
                0x000000000000072e                __ADC12MEM7 = 0x72e
                0x0000000000000730                __ADC12MEM8_L = 0x730
                0x0000000000000731                __ADC12MEM8_H = 0x731
                0x0000000000000730                __ADC12MEM8 = 0x730
                0x0000000000000732                __ADC12MEM9_L = 0x732
                0x0000000000000733                __ADC12MEM9_H = 0x733
                0x0000000000000732                __ADC12MEM9 = 0x732
                0x0000000000000734                __ADC12MEM10_L = 0x734
                0x0000000000000735                __ADC12MEM10_H = 0x735
                0x0000000000000734                __ADC12MEM10 = 0x734
                0x0000000000000736                __ADC12MEM11_L = 0x736
                0x0000000000000737                __ADC12MEM11_H = 0x737
                0x0000000000000736                __ADC12MEM11 = 0x736
                0x0000000000000738                __ADC12MEM12_L = 0x738
                0x0000000000000739                __ADC12MEM12_H = 0x739
                0x0000000000000738                __ADC12MEM12 = 0x738
                0x000000000000073a                __ADC12MEM13_L = 0x73a
                0x000000000000073b                __ADC12MEM13_H = 0x73b
                0x000000000000073a                __ADC12MEM13 = 0x73a
                0x000000000000073c                __ADC12MEM14_L = 0x73c
                0x000000000000073d                __ADC12MEM14_H = 0x73d
                0x000000000000073c                __ADC12MEM14 = 0x73c
                0x000000000000073e                __ADC12MEM15_L = 0x73e
                0x000000000000073f                __ADC12MEM15_H = 0x73f
                0x000000000000073e                __ADC12MEM15 = 0x73e
                0x0000000000000710                __ADC12MCTL0 = 0x710
                0x0000000000000711                __ADC12MCTL1 = 0x711
                0x0000000000000712                __ADC12MCTL2 = 0x712
                0x0000000000000713                __ADC12MCTL3 = 0x713
                0x0000000000000714                __ADC12MCTL4 = 0x714
                0x0000000000000715                __ADC12MCTL5 = 0x715
                0x0000000000000716                __ADC12MCTL6 = 0x716
                0x0000000000000717                __ADC12MCTL7 = 0x717
                0x0000000000000718                __ADC12MCTL8 = 0x718
                0x0000000000000719                __ADC12MCTL9 = 0x719
                0x000000000000071a                __ADC12MCTL10 = 0x71a
                0x000000000000071b                __ADC12MCTL11 = 0x71b
                0x000000000000071c                __ADC12MCTL12 = 0x71c
                0x000000000000071d                __ADC12MCTL13 = 0x71d
                0x000000000000071e                __ADC12MCTL14 = 0x71e
                0x000000000000071f                __ADC12MCTL15 = 0x71f
                0x0000000000000150                __CRCDI_L = 0x150
                0x0000000000000151                __CRCDI_H = 0x151
                0x0000000000000150                __CRCDI = 0x150
                0x0000000000000154                __CRCINIRES_L = 0x154
                0x0000000000000155                __CRCINIRES_H = 0x155
                0x0000000000000154                __CRCINIRES = 0x154
                0x0000000000000500                __DMACTL0_L = 0x500
                0x0000000000000501                __DMACTL0_H = 0x501
                0x0000000000000500                __DMACTL0 = 0x500
                0x0000000000000502                __DMACTL1_L = 0x502
                0x0000000000000503                __DMACTL1_H = 0x503
                0x0000000000000502                __DMACTL1 = 0x502
                0x0000000000000504                __DMACTL2_L = 0x504
                0x0000000000000505                __DMACTL2_H = 0x505
                0x0000000000000504                __DMACTL2 = 0x504
                0x0000000000000506                __DMACTL3_L = 0x506
                0x0000000000000507                __DMACTL3_H = 0x507
                0x0000000000000506                __DMACTL3 = 0x506
                0x0000000000000508                __DMACTL4_L = 0x508
                0x0000000000000509                __DMACTL4_H = 0x509
                0x0000000000000508                __DMACTL4 = 0x508
                0x000000000000050e                __DMAIV_L = 0x50e
                0x000000000000050f                __DMAIV_H = 0x50f
                0x000000000000050e                __DMAIV = 0x50e
                0x0000000000000510                __DMA0CTL_L = 0x510
                0x0000000000000511                __DMA0CTL_H = 0x511
                0x0000000000000510                __DMA0CTL = 0x510
                0x0000000000000512                __DMA0SA = 0x512
                0x0000000000000516                __DMA0DA = 0x516
                0x000000000000051a                __DMA0SZ = 0x51a
                0x0000000000000520                __DMA1CTL_L = 0x520
                0x0000000000000521                __DMA1CTL_H = 0x521
                0x0000000000000520                __DMA1CTL = 0x520
                0x0000000000000522                __DMA1SA = 0x522
                0x0000000000000526                __DMA1DA = 0x526
                0x000000000000052a                __DMA1SZ = 0x52a
                0x0000000000000530                __DMA2CTL_L = 0x530
                0x0000000000000531                __DMA2CTL_H = 0x531
                0x0000000000000530                __DMA2CTL = 0x530
                0x0000000000000532                __DMA2SA = 0x532
                0x0000000000000536                __DMA2DA = 0x536
                0x000000000000053a                __DMA2SZ = 0x53a
                0x0000000000000140                __FCTL1_L = 0x140
                0x0000000000000141                __FCTL1_H = 0x141
                0x0000000000000140                __FCTL1 = 0x140
                0x0000000000000144                __FCTL3_L = 0x144
                0x0000000000000145                __FCTL3_H = 0x145
                0x0000000000000144                __FCTL3 = 0x144
                0x0000000000000146                __FCTL4_L = 0x146
                0x0000000000000147                __FCTL4_H = 0x147
                0x0000000000000146                __FCTL4 = 0x146
                0x00000000000004c0                __MPY_L = 0x4c0
                0x00000000000004c1                __MPY_H = 0x4c1
                0x00000000000004c0                __MPY = 0x4c0
                0x00000000000004c2                __MPYS_L = 0x4c2
                0x00000000000004c3                __MPYS_H = 0x4c3
                0x00000000000004c2                __MPYS = 0x4c2
                0x00000000000004c4                __MAC_L = 0x4c4
                0x00000000000004c5                __MAC_H = 0x4c5
                0x00000000000004c4                __MAC = 0x4c4
                0x00000000000004c6                __MACS_L = 0x4c6
                0x00000000000004c7                __MACS_H = 0x4c7
                0x00000000000004c6                __MACS = 0x4c6
                0x00000000000004c8                __OP2_L = 0x4c8
                0x00000000000004c9                __OP2_H = 0x4c9
                0x00000000000004c8                __OP2 = 0x4c8
                0x00000000000004ca                __RESLO_L = 0x4ca
                0x00000000000004cb                __RESLO_H = 0x4cb
                0x00000000000004ca                __RESLO = 0x4ca
                0x00000000000004cc                __RESHI_L = 0x4cc
                0x00000000000004cd                __RESHI_H = 0x4cd
                0x00000000000004cc                __RESHI = 0x4cc
                0x00000000000004ce                __SUMEXT_L = 0x4ce
                0x00000000000004cf                __SUMEXT_H = 0x4cf
                0x00000000000004ce                __SUMEXT = 0x4ce
                0x00000000000004d0                __MPY32L_L = 0x4d0
                0x00000000000004d1                __MPY32L_H = 0x4d1
                0x00000000000004d0                __MPY32L = 0x4d0
                0x00000000000004d2                __MPY32H_L = 0x4d2
                0x00000000000004d3                __MPY32H_H = 0x4d3
                0x00000000000004d2                __MPY32H = 0x4d2
                0x00000000000004d4                __MPYS32L_L = 0x4d4
                0x00000000000004d5                __MPYS32L_H = 0x4d5
                0x00000000000004d4                __MPYS32L = 0x4d4
                0x00000000000004d6                __MPYS32H_L = 0x4d6
                0x00000000000004d7                __MPYS32H_H = 0x4d7
                0x00000000000004d6                __MPYS32H = 0x4d6
                0x00000000000004d8                __MAC32L_L = 0x4d8
                0x00000000000004d9                __MAC32L_H = 0x4d9
                0x00000000000004d8                __MAC32L = 0x4d8
                0x00000000000004da                __MAC32H_L = 0x4da
                0x00000000000004db                __MAC32H_H = 0x4db
                0x00000000000004da                __MAC32H = 0x4da
                0x00000000000004dc                __MACS32L_L = 0x4dc
                0x00000000000004dd                __MACS32L_H = 0x4dd
                0x00000000000004dc                __MACS32L = 0x4dc
                0x00000000000004de                __MACS32H_L = 0x4de
                0x00000000000004df                __MACS32H_H = 0x4df
                0x00000000000004de                __MACS32H = 0x4de
                0x00000000000004e0                __OP2L_L = 0x4e0
                0x00000000000004e1                __OP2L_H = 0x4e1
                0x00000000000004e0                __OP2L = 0x4e0
                0x00000000000004e2                __OP2H_L = 0x4e2
                0x00000000000004e3                __OP2H_H = 0x4e3
                0x00000000000004e2                __OP2H = 0x4e2
                0x00000000000004e4                __RES0_L = 0x4e4
                0x00000000000004e5                __RES0_H = 0x4e5
                0x00000000000004e4                __RES0 = 0x4e4
                0x00000000000004e6                __RES1_L = 0x4e6
                0x00000000000004e7                __RES1_H = 0x4e7
                0x00000000000004e6                __RES1 = 0x4e6
                0x00000000000004e8                __RES2_L = 0x4e8
                0x00000000000004e9                __RES2_H = 0x4e9
                0x00000000000004e8                __RES2 = 0x4e8
                0x00000000000004ea                __RES3_L = 0x4ea
                0x00000000000004eb                __RES3_H = 0x4eb
                0x00000000000004ea                __RES3 = 0x4ea
                0x00000000000004ec                __MPY32CTL0_L = 0x4ec
                0x00000000000004ed                __MPY32CTL0_H = 0x4ed
                0x00000000000004ec                __MPY32CTL0 = 0x4ec
                0x0000000000000200                __PAIN_L = 0x200
                0x0000000000000201                __PAIN_H = 0x201
                0x0000000000000200                __PAIN = 0x200
                0x0000000000000202                __PAOUT_L = 0x202
                0x0000000000000203                __PAOUT_H = 0x203
                0x0000000000000202                __PAOUT = 0x202
                0x0000000000000204                __PADIR_L = 0x204
                0x0000000000000205                __PADIR_H = 0x205
                0x0000000000000204                __PADIR = 0x204
                0x0000000000000206                __PAREN_L = 0x206
                0x0000000000000207                __PAREN_H = 0x207
                0x0000000000000206                __PAREN = 0x206
                0x0000000000000208                __PADS_L = 0x208
                0x0000000000000209                __PADS_H = 0x209
                0x0000000000000208                __PADS = 0x208
                0x000000000000020a                __PASEL_L = 0x20a
                0x000000000000020b                __PASEL_H = 0x20b
                0x000000000000020a                __PASEL = 0x20a
                0x0000000000000218                __PAIES_L = 0x218
                0x0000000000000219                __PAIES_H = 0x219
                0x0000000000000218                __PAIES = 0x218
                0x000000000000021a                __PAIE_L = 0x21a
                0x000000000000021b                __PAIE_H = 0x21b
                0x000000000000021a                __PAIE = 0x21a
                0x000000000000021c                __PAIFG_L = 0x21c
                0x000000000000021d                __PAIFG_H = 0x21d
                0x000000000000021c                __PAIFG = 0x21c
                0x000000000000020e                __P1IV = 0x20e
                0x000000000000021e                __P2IV = 0x21e
                0x0000000000000220                __PBIN_L = 0x220
                0x0000000000000221                __PBIN_H = 0x221
                0x0000000000000220                __PBIN = 0x220
                0x0000000000000222                __PBOUT_L = 0x222
                0x0000000000000223                __PBOUT_H = 0x223
                0x0000000000000222                __PBOUT = 0x222
                0x0000000000000224                __PBDIR_L = 0x224
                0x0000000000000225                __PBDIR_H = 0x225
                0x0000000000000224                __PBDIR = 0x224
                0x0000000000000226                __PBREN_L = 0x226
                0x0000000000000227                __PBREN_H = 0x227
                0x0000000000000226                __PBREN = 0x226
                0x0000000000000228                __PBDS_L = 0x228
                0x0000000000000229                __PBDS_H = 0x229
                0x0000000000000228                __PBDS = 0x228
                0x000000000000022a                __PBSEL_L = 0x22a
                0x000000000000022b                __PBSEL_H = 0x22b
                0x000000000000022a                __PBSEL = 0x22a
                0x0000000000000240                __PCIN_L = 0x240
                0x0000000000000241                __PCIN_H = 0x241
                0x0000000000000240                __PCIN = 0x240
                0x0000000000000242                __PCOUT_L = 0x242
                0x0000000000000243                __PCOUT_H = 0x243
                0x0000000000000242                __PCOUT = 0x242
                0x0000000000000244                __PCDIR_L = 0x244
                0x0000000000000245                __PCDIR_H = 0x245
                0x0000000000000244                __PCDIR = 0x244
                0x0000000000000246                __PCREN_L = 0x246
                0x0000000000000247                __PCREN_H = 0x247
                0x0000000000000246                __PCREN = 0x246
                0x0000000000000248                __PCDS_L = 0x248
                0x0000000000000249                __PCDS_H = 0x249
                0x0000000000000248                __PCDS = 0x248
                0x000000000000024a                __PCSEL_L = 0x24a
                0x000000000000024b                __PCSEL_H = 0x24b
                0x000000000000024a                __PCSEL = 0x24a
                0x0000000000000260                __PDIN_L = 0x260
                0x0000000000000261                __PDIN_H = 0x261
                0x0000000000000260                __PDIN = 0x260
                0x0000000000000262                __PDOUT_L = 0x262
                0x0000000000000263                __PDOUT_H = 0x263
                0x0000000000000262                __PDOUT = 0x262
                0x0000000000000264                __PDDIR_L = 0x264
                0x0000000000000265                __PDDIR_H = 0x265
                0x0000000000000264                __PDDIR = 0x264
                0x0000000000000266                __PDREN_L = 0x266
                0x0000000000000267                __PDREN_H = 0x267
                0x0000000000000266                __PDREN = 0x266
                0x0000000000000268                __PDDS_L = 0x268
                0x0000000000000269                __PDDS_H = 0x269
                0x0000000000000268                __PDDS = 0x268
                0x000000000000026a                __PDSEL_L = 0x26a
                0x000000000000026b                __PDSEL_H = 0x26b
                0x000000000000026a                __PDSEL = 0x26a
                0x0000000000000280                __PEIN_L = 0x280
                0x0000000000000281                __PEIN_H = 0x281
                0x0000000000000280                __PEIN = 0x280
                0x0000000000000282                __PEOUT_L = 0x282
                0x0000000000000283                __PEOUT_H = 0x283
                0x0000000000000282                __PEOUT = 0x282
                0x0000000000000284                __PEDIR_L = 0x284
                0x0000000000000285                __PEDIR_H = 0x285
                0x0000000000000284                __PEDIR = 0x284
                0x0000000000000286                __PEREN_L = 0x286
                0x0000000000000287                __PEREN_H = 0x287
                0x0000000000000286                __PEREN = 0x286
                0x0000000000000288                __PEDS_L = 0x288
                0x0000000000000289                __PEDS_H = 0x289
                0x0000000000000288                __PEDS = 0x288
                0x000000000000028a                __PESEL_L = 0x28a
                0x000000000000028b                __PESEL_H = 0x28b
                0x000000000000028a                __PESEL = 0x28a
                0x00000000000002a0                __PFIN_L = 0x2a0
                0x00000000000002a1                __PFIN_H = 0x2a1
                0x00000000000002a0                __PFIN = 0x2a0
                0x00000000000002a2                __PFOUT_L = 0x2a2
                0x00000000000002a3                __PFOUT_H = 0x2a3
                0x00000000000002a2                __PFOUT = 0x2a2
                0x00000000000002a4                __PFDIR_L = 0x2a4
                0x00000000000002a5                __PFDIR_H = 0x2a5
                0x00000000000002a4                __PFDIR = 0x2a4
                0x00000000000002a6                __PFREN_L = 0x2a6
                0x00000000000002a7                __PFREN_H = 0x2a7
                0x00000000000002a6                __PFREN = 0x2a6
                0x00000000000002a8                __PFDS_L = 0x2a8
                0x00000000000002a9                __PFDS_H = 0x2a9
                0x00000000000002a8                __PFDS = 0x2a8
                0x00000000000002aa                __PFSEL_L = 0x2aa
                0x00000000000002ab                __PFSEL_H = 0x2ab
                0x00000000000002aa                __PFSEL = 0x2aa
                0x0000000000000320                __PJIN_L = 0x320
                0x0000000000000321                __PJIN_H = 0x321
                0x0000000000000320                __PJIN = 0x320
                0x0000000000000322                __PJOUT_L = 0x322
                0x0000000000000323                __PJOUT_H = 0x323
                0x0000000000000322                __PJOUT = 0x322
                0x0000000000000324                __PJDIR_L = 0x324
                0x0000000000000325                __PJDIR_H = 0x325
                0x0000000000000324                __PJDIR = 0x324
                0x0000000000000326                __PJREN_L = 0x326
                0x0000000000000327                __PJREN_H = 0x327
                0x0000000000000326                __PJREN = 0x326
                0x0000000000000328                __PJDS_L = 0x328
                0x0000000000000329                __PJDS_H = 0x329
                0x0000000000000328                __PJDS = 0x328
                0x0000000000000120                __PMMCTL0_L = 0x120
                0x0000000000000121                __PMMCTL0_H = 0x121
                0x0000000000000120                __PMMCTL0 = 0x120
                0x0000000000000122                __PMMCTL1_L = 0x122
                0x0000000000000123                __PMMCTL1_H = 0x123
                0x0000000000000122                __PMMCTL1 = 0x122
                0x0000000000000124                __SVSMHCTL_L = 0x124
                0x0000000000000125                __SVSMHCTL_H = 0x125
                0x0000000000000124                __SVSMHCTL = 0x124
                0x0000000000000126                __SVSMLCTL_L = 0x126
                0x0000000000000127                __SVSMLCTL_H = 0x127
                0x0000000000000126                __SVSMLCTL = 0x126
                0x0000000000000128                __SVSMIO_L = 0x128
                0x0000000000000129                __SVSMIO_H = 0x129
                0x0000000000000128                __SVSMIO = 0x128
                0x000000000000012c                __PMMIFG_L = 0x12c
                0x000000000000012d                __PMMIFG_H = 0x12d
                0x000000000000012c                __PMMIFG = 0x12c
                0x000000000000012e                __PMMRIE_L = 0x12e
                0x000000000000012f                __PMMRIE_H = 0x12f
                0x000000000000012e                __PMMRIE = 0x12e
                0x0000000000000158                __RCCTL0_L = 0x158
                0x0000000000000159                __RCCTL0_H = 0x159
                0x0000000000000158                __RCCTL0 = 0x158
                0x00000000000004a0                __RTCCTL01_L = 0x4a0
                0x00000000000004a1                __RTCCTL01_H = 0x4a1
                0x00000000000004a0                __RTCCTL01 = 0x4a0
                0x00000000000004a2                __RTCCTL23_L = 0x4a2
                0x00000000000004a3                __RTCCTL23_H = 0x4a3
                0x00000000000004a2                __RTCCTL23 = 0x4a2
                0x00000000000004a8                __RTCPS0CTL_L = 0x4a8
                0x00000000000004a9                __RTCPS0CTL_H = 0x4a9
                0x00000000000004a8                __RTCPS0CTL = 0x4a8
                0x00000000000004aa                __RTCPS1CTL_L = 0x4aa
                0x00000000000004ab                __RTCPS1CTL_H = 0x4ab
                0x00000000000004aa                __RTCPS1CTL = 0x4aa
                0x00000000000004ac                __RTCPS_L = 0x4ac
                0x00000000000004ad                __RTCPS_H = 0x4ad
                0x00000000000004ac                __RTCPS = 0x4ac
                0x00000000000004ae                __RTCIV = 0x4ae
                0x00000000000004b0                __RTCTIM0_L = 0x4b0
                0x00000000000004b1                __RTCTIM0_H = 0x4b1
                0x00000000000004b0                __RTCTIM0 = 0x4b0
                0x00000000000004b2                __RTCTIM1_L = 0x4b2
                0x00000000000004b3                __RTCTIM1_H = 0x4b3
                0x00000000000004b2                __RTCTIM1 = 0x4b2
                0x00000000000004b4                __RTCDATE_L = 0x4b4
                0x00000000000004b5                __RTCDATE_H = 0x4b5
                0x00000000000004b4                __RTCDATE = 0x4b4
                0x00000000000004b6                __RTCYEAR_L = 0x4b6
                0x00000000000004b7                __RTCYEAR_H = 0x4b7
                0x00000000000004b6                __RTCYEAR = 0x4b6
                0x00000000000004b8                __RTCAMINHR_L = 0x4b8
                0x00000000000004b9                __RTCAMINHR_H = 0x4b9
                0x00000000000004b8                __RTCAMINHR = 0x4b8
                0x00000000000004ba                __RTCADOWDAY_L = 0x4ba
                0x00000000000004bb                __RTCADOWDAY_H = 0x4bb
                0x00000000000004ba                __RTCADOWDAY = 0x4ba
                0x0000000000000100                __SFRIE1_L = 0x100
                0x0000000000000101                __SFRIE1_H = 0x101
                0x0000000000000100                __SFRIE1 = 0x100
                0x0000000000000102                __SFRIFG1_L = 0x102
                0x0000000000000103                __SFRIFG1_H = 0x103
                0x0000000000000102                __SFRIFG1 = 0x102
                0x0000000000000104                __SFRRPCR_L = 0x104
                0x0000000000000105                __SFRRPCR_H = 0x105
                0x0000000000000104                __SFRRPCR = 0x104
                0x0000000000000180                __SYSCTL_L = 0x180
                0x0000000000000181                __SYSCTL_H = 0x181
                0x0000000000000180                __SYSCTL = 0x180
                0x0000000000000182                __SYSBSLC_L = 0x182
                0x0000000000000183                __SYSBSLC_H = 0x183
                0x0000000000000182                __SYSBSLC = 0x182
                0x0000000000000186                __SYSJMBC_L = 0x186
                0x0000000000000187                __SYSJMBC_H = 0x187
                0x0000000000000186                __SYSJMBC = 0x186
                0x0000000000000188                __SYSJMBI0_L = 0x188
                0x0000000000000189                __SYSJMBI0_H = 0x189
                0x0000000000000188                __SYSJMBI0 = 0x188
                0x000000000000018a                __SYSJMBI1_L = 0x18a
                0x000000000000018b                __SYSJMBI1_H = 0x18b
                0x000000000000018a                __SYSJMBI1 = 0x18a
                0x000000000000018c                __SYSJMBO0_L = 0x18c
                0x000000000000018d                __SYSJMBO0_H = 0x18d
                0x000000000000018c                __SYSJMBO0 = 0x18c
                0x000000000000018e                __SYSJMBO1_L = 0x18e
                0x000000000000018f                __SYSJMBO1_H = 0x18f
                0x000000000000018e                __SYSJMBO1 = 0x18e
                0x000000000000019a                __SYSUNIV_L = 0x19a
                0x000000000000019b                __SYSUNIV_H = 0x19b
                0x000000000000019a                __SYSUNIV = 0x19a
                0x000000000000019c                __SYSSNIV_L = 0x19c
                0x000000000000019d                __SYSSNIV_H = 0x19d
                0x000000000000019c                __SYSSNIV = 0x19c
                0x000000000000019e                __SYSRSTIV_L = 0x19e
                0x000000000000019f                __SYSRSTIV_H = 0x19f
                0x000000000000019e                __SYSRSTIV = 0x19e
                0x0000000000000340                __TA0CTL = 0x340
                0x0000000000000342                __TA0CCTL0 = 0x342
                0x0000000000000344                __TA0CCTL1 = 0x344
                0x0000000000000346                __TA0CCTL2 = 0x346
                0x0000000000000348                __TA0CCTL3 = 0x348
                0x000000000000034a                __TA0CCTL4 = 0x34a
                0x0000000000000350                __TA0R = 0x350
                0x0000000000000352                __TA0CCR0 = 0x352
                0x0000000000000354                __TA0CCR1 = 0x354
                0x0000000000000356                __TA0CCR2 = 0x356
                0x0000000000000358                __TA0CCR3 = 0x358
                0x000000000000035a                __TA0CCR4 = 0x35a
                0x000000000000036e                __TA0IV = 0x36e
                0x0000000000000360                __TA0EX0 = 0x360
                0x0000000000000380                __TA1CTL = 0x380
                0x0000000000000382                __TA1CCTL0 = 0x382
                0x0000000000000384                __TA1CCTL1 = 0x384
                0x0000000000000386                __TA1CCTL2 = 0x386
                0x0000000000000390                __TA1R = 0x390
                0x0000000000000392                __TA1CCR0 = 0x392
                0x0000000000000394                __TA1CCR1 = 0x394
                0x0000000000000396                __TA1CCR2 = 0x396
                0x00000000000003ae                __TA1IV = 0x3ae
                0x00000000000003a0                __TA1EX0 = 0x3a0
                0x00000000000003c0                __TB0CTL = 0x3c0
                0x00000000000003c2                __TB0CCTL0 = 0x3c2
                0x00000000000003c4                __TB0CCTL1 = 0x3c4
                0x00000000000003c6                __TB0CCTL2 = 0x3c6
                0x00000000000003c8                __TB0CCTL3 = 0x3c8
                0x00000000000003ca                __TB0CCTL4 = 0x3ca
                0x00000000000003cc                __TB0CCTL5 = 0x3cc
                0x00000000000003ce                __TB0CCTL6 = 0x3ce
                0x00000000000003d0                __TB0R = 0x3d0
                0x00000000000003d2                __TB0CCR0 = 0x3d2
                0x00000000000003d4                __TB0CCR1 = 0x3d4
                0x00000000000003d6                __TB0CCR2 = 0x3d6
                0x00000000000003d8                __TB0CCR3 = 0x3d8
                0x00000000000003da                __TB0CCR4 = 0x3da
                0x00000000000003dc                __TB0CCR5 = 0x3dc
                0x00000000000003de                __TB0CCR6 = 0x3de
                0x00000000000003e0                __TB0EX0 = 0x3e0
                0x00000000000003ee                __TB0IV = 0x3ee
                0x0000000000000160                __UCSCTL0_L = 0x160
                0x0000000000000161                __UCSCTL0_H = 0x161
                0x0000000000000160                __UCSCTL0 = 0x160
                0x0000000000000162                __UCSCTL1_L = 0x162
                0x0000000000000163                __UCSCTL1_H = 0x163
                0x0000000000000162                __UCSCTL1 = 0x162
                0x0000000000000164                __UCSCTL2_L = 0x164
                0x0000000000000165                __UCSCTL2_H = 0x165
                0x0000000000000164                __UCSCTL2 = 0x164
                0x0000000000000166                __UCSCTL3_L = 0x166
                0x0000000000000167                __UCSCTL3_H = 0x167
                0x0000000000000166                __UCSCTL3 = 0x166
                0x0000000000000168                __UCSCTL4_L = 0x168
                0x0000000000000169                __UCSCTL4_H = 0x169
                0x0000000000000168                __UCSCTL4 = 0x168
                0x000000000000016a                __UCSCTL5_L = 0x16a
                0x000000000000016b                __UCSCTL5_H = 0x16b
                0x000000000000016a                __UCSCTL5 = 0x16a
                0x000000000000016c                __UCSCTL6_L = 0x16c
                0x000000000000016d                __UCSCTL6_H = 0x16d
                0x000000000000016c                __UCSCTL6 = 0x16c
                0x000000000000016e                __UCSCTL7_L = 0x16e
                0x000000000000016f                __UCSCTL7_H = 0x16f
                0x000000000000016e                __UCSCTL7 = 0x16e
                0x0000000000000170                __UCSCTL8_L = 0x170
                0x0000000000000171                __UCSCTL8_H = 0x171
                0x0000000000000170                __UCSCTL8 = 0x170
                0x00000000000005c0                __UCA0CTLW0_L = 0x5c0
                0x00000000000005c1                __UCA0CTLW0_H = 0x5c1
                0x00000000000005c0                __UCA0CTLW0 = 0x5c0
                0x00000000000005c6                __UCA0BRW_L = 0x5c6
                0x00000000000005c7                __UCA0BRW_H = 0x5c7
                0x00000000000005c6                __UCA0BRW = 0x5c6
                0x00000000000005c8                __UCA0MCTL = 0x5c8
                0x00000000000005ca                __UCA0STAT = 0x5ca
                0x00000000000005cc                __UCA0RXBUF = 0x5cc
                0x00000000000005ce                __UCA0TXBUF = 0x5ce
                0x00000000000005d0                __UCA0ABCTL = 0x5d0
                0x00000000000005d2                __UCA0IRCTL_L = 0x5d2
                0x00000000000005d3                __UCA0IRCTL_H = 0x5d3
                0x00000000000005d2                __UCA0IRCTL = 0x5d2
                0x00000000000005dc                __UCA0ICTL_L = 0x5dc
                0x00000000000005dd                __UCA0ICTL_H = 0x5dd
                0x00000000000005dc                __UCA0ICTL = 0x5dc
                0x00000000000005de                __UCA0IV = 0x5de
                0x00000000000005e0                __UCB0CTLW0_L = 0x5e0
                0x00000000000005e1                __UCB0CTLW0_H = 0x5e1
                0x00000000000005e0                __UCB0CTLW0 = 0x5e0
                0x00000000000005e6                __UCB0BRW_L = 0x5e6
                0x00000000000005e7                __UCB0BRW_H = 0x5e7
                0x00000000000005e6                __UCB0BRW = 0x5e6
                0x00000000000005ea                __UCB0STAT = 0x5ea
                0x00000000000005ec                __UCB0RXBUF = 0x5ec
                0x00000000000005ee                __UCB0TXBUF = 0x5ee
                0x00000000000005f0                __UCB0I2COA_L = 0x5f0
                0x00000000000005f1                __UCB0I2COA_H = 0x5f1
                0x00000000000005f0                __UCB0I2COA = 0x5f0
                0x00000000000005f2                __UCB0I2CSA_L = 0x5f2
                0x00000000000005f3                __UCB0I2CSA_H = 0x5f3
                0x00000000000005f2                __UCB0I2CSA = 0x5f2
                0x00000000000005fc                __UCB0ICTL_L = 0x5fc
                0x00000000000005fd                __UCB0ICTL_H = 0x5fd
                0x00000000000005fc                __UCB0ICTL = 0x5fc
                0x00000000000005fe                __UCB0IV = 0x5fe
                0x0000000000000600                __UCA1CTLW0_L = 0x600
                0x0000000000000601                __UCA1CTLW0_H = 0x601
                0x0000000000000600                __UCA1CTLW0 = 0x600
                0x0000000000000606                __UCA1BRW_L = 0x606
                0x0000000000000607                __UCA1BRW_H = 0x607
                0x0000000000000606                __UCA1BRW = 0x606
                0x0000000000000608                __UCA1MCTL = 0x608
                0x000000000000060a                __UCA1STAT = 0x60a
                0x000000000000060c                __UCA1RXBUF = 0x60c
                0x000000000000060e                __UCA1TXBUF = 0x60e
                0x0000000000000610                __UCA1ABCTL = 0x610
                0x0000000000000612                __UCA1IRCTL_L = 0x612
                0x0000000000000613                __UCA1IRCTL_H = 0x613
                0x0000000000000612                __UCA1IRCTL = 0x612
                0x000000000000061c                __UCA1ICTL_L = 0x61c
                0x000000000000061d                __UCA1ICTL_H = 0x61d
                0x000000000000061c                __UCA1ICTL = 0x61c
                0x000000000000061e                __UCA1IV = 0x61e
                0x0000000000000620                __UCB1CTLW0_L = 0x620
                0x0000000000000621                __UCB1CTLW0_H = 0x621
                0x0000000000000620                __UCB1CTLW0 = 0x620
                0x0000000000000626                __UCB1BRW_L = 0x626
                0x0000000000000627                __UCB1BRW_H = 0x627
                0x0000000000000626                __UCB1BRW = 0x626
                0x000000000000062a                __UCB1STAT = 0x62a
                0x000000000000062c                __UCB1RXBUF = 0x62c
                0x000000000000062e                __UCB1TXBUF = 0x62e
                0x0000000000000630                __UCB1I2COA_L = 0x630
                0x0000000000000631                __UCB1I2COA_H = 0x631
                0x0000000000000630                __UCB1I2COA = 0x630
                0x0000000000000632                __UCB1I2CSA_L = 0x632
                0x0000000000000633                __UCB1I2CSA_H = 0x633
                0x0000000000000632                __UCB1I2CSA = 0x632
                0x000000000000063c                __UCB1ICTL_L = 0x63c
                0x000000000000063d                __UCB1ICTL_H = 0x63d
                0x000000000000063c                __UCB1ICTL = 0x63c
                0x000000000000063e                __UCB1IV = 0x63e
                0x0000000000000640                __UCA2CTLW0_L = 0x640
                0x0000000000000641                __UCA2CTLW0_H = 0x641
                0x0000000000000640                __UCA2CTLW0 = 0x640
                0x0000000000000646                __UCA2BRW_L = 0x646
                0x0000000000000647                __UCA2BRW_H = 0x647
                0x0000000000000646                __UCA2BRW = 0x646
                0x0000000000000648                __UCA2MCTL = 0x648
                0x000000000000064a                __UCA2STAT = 0x64a
                0x000000000000064c                __UCA2RXBUF = 0x64c
                0x000000000000064e                __UCA2TXBUF = 0x64e
                0x0000000000000650                __UCA2ABCTL = 0x650
                0x0000000000000652                __UCA2IRCTL_L = 0x652
                0x0000000000000653                __UCA2IRCTL_H = 0x653
                0x0000000000000652                __UCA2IRCTL = 0x652
                0x000000000000065c                __UCA2ICTL_L = 0x65c
                0x000000000000065d                __UCA2ICTL_H = 0x65d
                0x000000000000065c                __UCA2ICTL = 0x65c
                0x000000000000065e                __UCA2IV = 0x65e
                0x0000000000000660                __UCB2CTLW0_L = 0x660
                0x0000000000000661                __UCB2CTLW0_H = 0x661
                0x0000000000000660                __UCB2CTLW0 = 0x660
                0x0000000000000666                __UCB2BRW_L = 0x666
                0x0000000000000667                __UCB2BRW_H = 0x667
                0x0000000000000666                __UCB2BRW = 0x666
                0x000000000000066a                __UCB2STAT = 0x66a
                0x000000000000066c                __UCB2RXBUF = 0x66c
                0x000000000000066e                __UCB2TXBUF = 0x66e
                0x0000000000000670                __UCB2I2COA_L = 0x670
                0x0000000000000671                __UCB2I2COA_H = 0x671
                0x0000000000000670                __UCB2I2COA = 0x670
                0x0000000000000672                __UCB2I2CSA_L = 0x672
                0x0000000000000673                __UCB2I2CSA_H = 0x673
                0x0000000000000672                __UCB2I2CSA = 0x672
                0x000000000000067c                __UCB2ICTL_L = 0x67c
                0x000000000000067d                __UCB2ICTL_H = 0x67d
                0x000000000000067c                __UCB2ICTL = 0x67c
                0x000000000000067e                __UCB2IV = 0x67e
                0x0000000000000680                __UCA3CTLW0_L = 0x680
                0x0000000000000681                __UCA3CTLW0_H = 0x681
                0x0000000000000680                __UCA3CTLW0 = 0x680
                0x0000000000000686                __UCA3BRW_L = 0x686
                0x0000000000000687                __UCA3BRW_H = 0x687
                0x0000000000000686                __UCA3BRW = 0x686
                0x0000000000000688                __UCA3MCTL = 0x688
                0x000000000000068a                __UCA3STAT = 0x68a
                0x000000000000068c                __UCA3RXBUF = 0x68c
                0x000000000000068e                __UCA3TXBUF = 0x68e
                0x0000000000000690                __UCA3ABCTL = 0x690
                0x0000000000000692                __UCA3IRCTL_L = 0x692
                0x0000000000000693                __UCA3IRCTL_H = 0x693
                0x0000000000000692                __UCA3IRCTL = 0x692
                0x000000000000069c                __UCA3ICTL_L = 0x69c
                0x000000000000069d                __UCA3ICTL_H = 0x69d
                0x000000000000069c                __UCA3ICTL = 0x69c
                0x000000000000069e                __UCA3IV = 0x69e
                0x00000000000006a0                __UCB3CTLW0_L = 0x6a0
                0x00000000000006a1                __UCB3CTLW0_H = 0x6a1
                0x00000000000006a0                __UCB3CTLW0 = 0x6a0
                0x00000000000006a6                __UCB3BRW_L = 0x6a6
                0x00000000000006a7                __UCB3BRW_H = 0x6a7
                0x00000000000006a6                __UCB3BRW = 0x6a6
                0x00000000000006aa                __UCB3STAT = 0x6aa
                0x00000000000006ac                __UCB3RXBUF = 0x6ac
                0x00000000000006ae                __UCB3TXBUF = 0x6ae
                0x00000000000006b0                __UCB3I2COA_L = 0x6b0
                0x00000000000006b1                __UCB3I2COA_H = 0x6b1
                0x00000000000006b0                __UCB3I2COA = 0x6b0
                0x00000000000006b2                __UCB3I2CSA_L = 0x6b2
                0x00000000000006b3                __UCB3I2CSA_H = 0x6b3
                0x00000000000006b2                __UCB3I2CSA = 0x6b2
                0x00000000000006bc                __UCB3ICTL_L = 0x6bc
                0x00000000000006bd                __UCB3ICTL_H = 0x6bd
                0x00000000000006bc                __UCB3ICTL = 0x6bc
                0x00000000000006be                __UCB3IV = 0x6be
                0x000000000000015c                __WDTCTL_L = 0x15c
                0x000000000000015d                __WDTCTL_H = 0x15d
                0x000000000000015c                __WDTCTL = 0x15c

.hash
 *(.hash)

.dynsym
 *(.dynsym)

.dynstr
 *(.dynstr)

.gnu.version
 *(.gnu.version)

.gnu.version_d
 *(.gnu.version_d)

.gnu.version_r
 *(.gnu.version_r)

.rel.init
 *(.rel.init)

.rela.init
 *(.rela.init)

.rel.fini
 *(.rel.fini)

.rela.fini
 *(.rela.fini)

.rel.text
 *(.rel.text .rel.text.* .rel.gnu.linkonce.t.*)

.rela.text
 *(.rela.text .rela.text.* .rela.gnu.linkonce.t.*)

.rel.rodata
 *(.rel.rodata .rel.rodata.* .rel.gnu.linkonce.r.*)

.rela.rodata
 *(.rela.rodata .rela.rodata.* .rela.gnu.linkonce.r.*)

.rel.data
 *(.rel.data .rel.data.* .rel.gnu.linkonce.d.*)

.rela.data
 *(.rela.data .rela.data.* .rela.gnu.linkonce.d.*)

.rel.bss
 *(.rel.bss .rel.bss.* .rel.gnu.linkonce.b.*)

.rela.bss
 *(.rela.bss .rela.bss.* .rela.gnu.linkonce.b.*)

.rel.ctors
 *(.rel.ctors)

.rela.ctors
 *(.rela.ctors)

.rel.dtors
 *(.rel.dtors)

.rela.dtors
 *(.rela.dtors)

.rel.got
 *(.rel.got)

.rela.got
 *(.rela.got)

.rel.plt
 *(.rel.plt)

.rela.plt
 *(.rela.plt)

.text           0x0000000000005c00     0x8948
                0x0000000000005c00                . = ALIGN (0x2)
 *(.init .init.*)
 *(.init0)
 .init0         0x0000000000005c00        0x0 /home/mkulkarni/opt/compiler/mspgcc-4.7.3/bin/../lib/gcc/msp430/4.7.3/mcpu-430x/mmpy-16/msr20/mc20/libcrt0.a(_reset_vector__.o)
                0x0000000000005c00                _reset_vector__
 *(.init1)
 .init1         0x0000000000005c00        0xc /home/mkulkarni/opt/compiler/mspgcc-4.7.3/bin/../lib/gcc/msp430/4.7.3/mcpu-430x/mmpy-16/msr20/mc20/libcrt0.a(__watchdog_support.o)
                0x0000000000005c00                __watchdog_support
 *(.init2)
 .init2         0x0000000000005c0c        0x4 /home/mkulkarni/opt/compiler/mspgcc-4.7.3/bin/../lib/gcc/msp430/4.7.3/mcpu-430x/mmpy-16/msr20/mc20/libcrt0.a(__init_stack.o)
                0x0000000000005c0c                __init_stack
 *(.init3)
 .init3         0x0000000000005c10        0x0 /home/mkulkarni/opt/compiler/mspgcc-4.7.3/bin/../lib/gcc/msp430/4.7.3/mcpu-430x/mmpy-16/msr20/mc20/libcrt0.a(__low_level_init.o)
                0x0000000000005c10                __low_level_init
 *(.init4)
 .init4         0x0000000000005c10       0x18 /home/mkulkarni/opt/compiler/mspgcc-4.7.3/bin/../lib/gcc/msp430/4.7.3/mcpu-430x/mmpy-16/msr20/mc20/libcrt0.a(_copy_data.o)
                0x0000000000005c10                __do_copy_data
 .init4         0x0000000000005c28       0x16 /home/mkulkarni/opt/compiler/mspgcc-4.7.3/bin/../lib/gcc/msp430/4.7.3/mcpu-430x/mmpy-16/msr20/mc20/libcrt0.a(_clear_bss.o)
                0x0000000000005c28                __do_clear_bss
 *(.init5)
 *(.init6)
 *(.init7)
 *(.init8)
 *(.init9)
 .init9         0x0000000000005c3e      0x304 obj_exp5438/contiki-exp5438-main.o
                0x0000000000005c3e                main
 *(.fini9)
 .fini9         0x0000000000005f42        0x0 /home/mkulkarni/opt/compiler/mspgcc-4.7.3/bin/../lib/gcc/msp430/4.7.3/mcpu-430x/mmpy-16/msr20/mc20/libcrt0.a(__stop_progExec__.o)
                0x0000000000005f42                __stop_progExec__
 *(.fini8)
 *(.fini7)
 *(.fini6)
 *(.fini5)
 *(.fini4)
 *(.fini3)
 *(.fini2)
 *(.fini1)
 *(.fini0)
 .fini0         0x0000000000005f42        0x6 /home/mkulkarni/opt/compiler/mspgcc-4.7.3/bin/../lib/gcc/msp430/4.7.3/mcpu-430x/mmpy-16/msr20/mc20/libcrt0.a(_endless_loop__.o)
                0x0000000000005f42                _endless_loop__
 *(.fini .fini.*)
                0x0000000000005f48                . = ALIGN (0x2)
                0x0000000000005f48                __ctors_start = .
 *(.ctors)
                0x0000000000005f48                __ctors_end = .
                0x0000000000005f48                __dtors_start = .
 *(.dtors)
                0x0000000000005f48                __dtors_end = .
                0x0000000000005f48                . = ALIGN (0x2)
 *(.text .text.* .gnu.linkonce.t.*)
 .text          0x0000000000005f48        0x4 /home/mkulkarni/opt/compiler/mspgcc-4.7.3/bin/../lib/gcc/msp430/4.7.3/mcpu-430x/mmpy-16/msr20/mc20/crt0ivtbl64.o
                0x0000000000005f48                __isr_37
                0x0000000000005f48                __isr_51
                0x0000000000005f48                __isr_57
                0x0000000000005f48                __isr_33
                0x0000000000005f48                __isr_32
                0x0000000000005f48                __isr_54
                0x0000000000005f48                __isr_42
                0x0000000000005f48                __isr_59
                0x0000000000005f48                __isr_39
                0x0000000000005f48                __isr_53
                0x0000000000005f48                __isr_41
                0x0000000000005f48                __isr_60
                0x0000000000005f48                __isr_36
                0x0000000000005f48                __isr_34
                0x0000000000005f48                __isr_44
                0x0000000000005f48                __isr_61
                0x0000000000005f48                __isr_55
                0x0000000000005f48                __isr_43
                0x0000000000005f48                __isr_50
                0x0000000000005f48                __isr_56
                0x0000000000005f48                __isr_38
                0x0000000000005f48                __isr_35
                0x0000000000005f48                __isr_45
                0x0000000000005f48                __isr_62
                0x0000000000005f48                __isr_52
                0x0000000000005f48                __isr_40
 .text.libgcc   0x0000000000005f4c       0x22 /home/mkulkarni/opt/compiler/mspgcc-4.7.3/bin/../lib/gcc/msp430/4.7.3/mcpu-430x/mmpy-16/msr20/mc20/libgcc.a(_udivmod16.o)
                0x0000000000005f4c                __udivhi3
                0x0000000000005f4c                __ext_udivmod16
                0x0000000000005f66                __umodhi3
 .text.libgcc   0x0000000000005f6e       0x3a /home/mkulkarni/opt/compiler/mspgcc-4.7.3/bin/../lib/gcc/msp430/4.7.3/mcpu-430x/mmpy-16/msr20/mc20/libgcc.a(_divmod16.o)
                0x0000000000005f6e                __ext_divmod16
                0x0000000000005f6e                __divhi3
                0x0000000000005fa0                __modhi3
 .text.libgcc   0x0000000000005fa8       0x38 /home/mkulkarni/opt/compiler/mspgcc-4.7.3/bin/../lib/gcc/msp430/4.7.3/mcpu-430x/mmpy-16/msr20/mc20/libgcc.a(_udivmod32.o)
                0x0000000000005fa8                __udivsi3
                0x0000000000005fa8                __ext_udivmod32
                0x0000000000005fd6                __umodsi3
 .text.libgcc   0x0000000000005fe0       0x4c /home/mkulkarni/opt/compiler/mspgcc-4.7.3/bin/../lib/gcc/msp430/4.7.3/mcpu-430x/mmpy-16/msr20/mc20/libgcc.a(_divmod32.o)
                0x0000000000005fe0                __ext_divmod32
                0x0000000000005fe0                __divsi3
                0x0000000000006022                __modsi3
 .text.libgcc   0x000000000000602c       0x26 /home/mkulkarni/opt/compiler/mspgcc-4.7.3/bin/../lib/gcc/msp430/4.7.3/mcpu-430x/mmpy-16/msr20/mc20/libgcc.a(_mulsi3.o)
                0x000000000000602c                __mulsi3
 .text.libgcc   0x0000000000006052       0xbc /home/mkulkarni/opt/compiler/mspgcc-4.7.3/bin/../lib/gcc/msp430/4.7.3/mcpu-430x/mmpy-16/msr20/mc20/libgcc.a(_udivmod64.o)
                0x0000000000006052                __xabi_udivmod64
                0x00000000000060a4                __udivdi3
                0x00000000000060be                __umoddi3
                0x00000000000060e0                __udivmoddi4
 .text.crt0     0x000000000000610e        0x2 /home/mkulkarni/opt/compiler/mspgcc-4.7.3/bin/../lib/gcc/msp430/4.7.3/mcpu-430x/mmpy-16/msr20/mc20/libcrt0.a(_unexpected_.o)
                0x000000000000610e                _unexpected_
 *(.near.text .near.text.*)
 .near.text.watchdog_interrupt
                0x0000000000006110        0x6 contiki-exp5438.a(watchdog.o)
                0x0000000000006110                watchdog_interrupt
                0x0000000000006110                __isr_58
 .near.text.cc24240_fifop_interrupt
                0x0000000000006116       0x58 contiki-exp5438.a(cc2420-arch.o)
                0x0000000000006116                __isr_47
                0x0000000000006116                cc24240_fifop_interrupt
 .near.text.timera0
                0x000000000000616e       0x5c contiki-exp5438.a(rtimer-arch.o)
                0x000000000000616e                __isr_49
                0x000000000000616e                timera0
 .near.text.uart1_rx_interrupt
                0x00000000000061ca       0x6c contiki-exp5438.a(uart1x.o)
                0x00000000000061ca                __isr_46
                0x00000000000061ca                uart1_rx_interrupt
 .near.text.timera1
                0x0000000000006236       0xfc contiki-exp5438.a(clock.o)
                0x0000000000006236                __isr_48
                0x0000000000006236                timera1
 .any.text.udp_rx_callback
                0x0000000000006332       0x88 sdn-controller.co
 .any.text.process_thread_sdn_controller_process
                0x00000000000063ba      0x216 sdn-controller.co
 .any.text.print_division
                0x00000000000065d0       0xb2 obj_exp5438/sdn-stats.o
 .any.text.sdn_stats_start
                0x0000000000006682       0x18 obj_exp5438/sdn-stats.o
                0x0000000000006682                sdn_stats_start
 .any.text.sdn_stats_print
                0x000000000000669a       0x66 obj_exp5438/sdn-stats.o
                0x000000000000669a                sdn_stats_print
 .any.text.sdn_energy_print
                0x0000000000006700      0x282 obj_exp5438/sdn-stats.o
                0x0000000000006700                sdn_energy_print
 .any.text.process_thread_sdn_stats_process
                0x0000000000006982       0x7e obj_exp5438/sdn-stats.o
 .any.text.atom_init
                0x0000000000006a00       0x48 contiki-exp5438.a(atom.o)
                0x0000000000006a00                atom_init
 .any.text.atom_post
                0x0000000000006a48        0xe contiki-exp5438.a(atom.o)
                0x0000000000006a48                atom_post
 .any.text.atom_set_handshake_timer
                0x0000000000006a56       0xb6 contiki-exp5438.a(atom.o)
                0x0000000000006a56                atom_set_handshake_timer
 .any.text.atom_run
                0x0000000000006b0c      0x198 contiki-exp5438.a(atom.o)
                0x0000000000006b0c                atom_run
 .any.text.process_thread_controller_process
                0x0000000000006ca4       0x7c contiki-exp5438.a(atom.o)
 .any.text.atom_buffer_init
                0x0000000000006d20       0x44 contiki-exp5438.a(atom-buffer.o)
                0x0000000000006d20                atom_buffer_init
 .any.text.atom_buffer_add
                0x0000000000006d64       0xa0 contiki-exp5438.a(atom-buffer.o)
                0x0000000000006d64                atom_buffer_add
 .any.text.atom_buffer_head
                0x0000000000006e04       0x70 contiki-exp5438.a(atom-buffer.o)
                0x0000000000006e04                atom_buffer_head
 .any.text.atom_buffer_remove
                0x0000000000006e74       0x24 contiki-exp5438.a(atom-buffer.o)
                0x0000000000006e74                atom_buffer_remove
 .any.text.atom_action_buf_copy_to
                0x0000000000006e98       0x62 contiki-exp5438.a(atom-buffer.o)
                0x0000000000006e98                atom_action_buf_copy_to
 .any.text.atom_action_buf_clear
                0x0000000000006efa       0x10 contiki-exp5438.a(atom-buffer.o)
                0x0000000000006efa                atom_action_buf_clear
 .any.text.atom_response_buf_copy_to
                0x0000000000006f0a       0x42 contiki-exp5438.a(atom-buffer.o)
                0x0000000000006f0a                atom_response_buf_copy_to
 .any.text.atom_response_buf_clear
                0x0000000000006f4c       0x10 contiki-exp5438.a(atom-buffer.o)
                0x0000000000006f4c                atom_response_buf_clear
 .any.text.node_allocate
                0x0000000000006f5c       0x60 contiki-exp5438.a(atom-net.o)
 .any.text.node_add
                0x0000000000006fbc       0x78 contiki-exp5438.a(atom-net.o)
 .any.text.atom_net_init
                0x0000000000007034       0x12 contiki-exp5438.a(atom-net.o)
                0x0000000000007034                atom_net_init
 .any.text.atom_net_get_node_id
                0x0000000000007046       0x20 contiki-exp5438.a(atom-net.o)
                0x0000000000007046                atom_net_get_node_id
 .any.text.atom_net_node_heartbeat
                0x0000000000007066       0x4a contiki-exp5438.a(atom-net.o)
                0x0000000000007066                atom_net_node_heartbeat
 .any.text.atom_net_node_update
                0x00000000000070b0       0x56 contiki-exp5438.a(atom-net.o)
                0x00000000000070b0                atom_net_node_update
 .any.text.atom_net_link_update
                0x0000000000007106      0x11a contiki-exp5438.a(atom-net.o)
                0x0000000000007106                atom_net_link_update
 .any.text.print_network_graph
                0x0000000000007220       0x14 contiki-exp5438.a(atom-net.o)
                0x0000000000007220                print_network_graph
 .any.text.atom_net_get_node_ipaddr
                0x0000000000007234       0xa4 contiki-exp5438.a(atom-net.o)
                0x0000000000007234                atom_net_get_node_ipaddr
 .any.text.in   0x00000000000072d8      0x1de contiki-exp5438.a(atom-sb-usdn.o)
 .any.text.init
                0x00000000000074b6       0x1c contiki-exp5438.a(atom-sb-usdn.o)
 .any.text.usdn_receive
                0x00000000000074d2       0xd2 contiki-exp5438.a(atom-sb-usdn.o)
 .any.text.out  0x00000000000075a4      0x248 contiki-exp5438.a(atom-sb-usdn.o)
 .any.text.init
                0x00000000000077ec        0x2 contiki-exp5438.a(atom-sb-rpl.o)
 .any.text.in   0x00000000000077ee      0x136 contiki-exp5438.a(atom-sb-rpl.o)
 .any.text.out  0x0000000000007924       0x32 contiki-exp5438.a(atom-sb-rpl.o)
 .any.text.pop  0x0000000000007956       0x14 contiki-exp5438.a(atom-app-route-)
 .any.text.init
                0x000000000000796a        0x2 contiki-exp5438.a(atom-app-route-)
 .any.text.clear_spath
                0x000000000000796c       0x16 contiki-exp5438.a(atom-app-route-)
                0x000000000000796c                clear_spath
 .any.text.depth_first_search
                0x0000000000007982       0xea contiki-exp5438.a(atom-app-route-)
 .any.text.run  0x0000000000007a6c       0xc8 contiki-exp5438.a(atom-app-route-)
 .any.text.init
                0x0000000000007b34        0x2 contiki-exp5438.a(atom-app-route-)
 .any.text.run  0x0000000000007b36      0x1de contiki-exp5438.a(atom-app-route-)
 .any.text.init
                0x0000000000007d14        0x2 contiki-exp5438.a(atom-app-join-c)
 .any.text.run  0x0000000000007d16       0x8e contiki-exp5438.a(atom-app-join-c)
 .any.text.handle_cfg_timer
                0x0000000000007da4       0x84 contiki-exp5438.a(atom-app-join-c)
 .any.text.w_memcpy
                0x0000000000007e28       0x1c contiki-exp5438.a(msp430.o)
                0x0000000000007e28                w_memcpy
 .any.text.w_memset
                0x0000000000007e44       0x12 contiki-exp5438.a(msp430.o)
                0x0000000000007e44                w_memset
 .any.text.msp430_set_dco_speed
                0x0000000000007e56       0x6a contiki-exp5438.a(msp430.o)
                0x0000000000007e56                msp430_set_dco_speed
 .any.text.msp430_quick_synch_dco
                0x0000000000007ec0        0xe contiki-exp5438.a(msp430.o)
                0x0000000000007ec0                msp430_quick_synch_dco
 .any.text.msp430_cpu_init
                0x0000000000007ece       0x96 contiki-exp5438.a(msp430.o)
                0x0000000000007ece                msp430_cpu_init
 .any.text.splhigh_
                0x0000000000007f64        0x8 contiki-exp5438.a(msp430.o)
                0x0000000000007f64                splhigh_
 .any.text.show_leds
                0x0000000000007f6c       0xe8 contiki-exp5438.a(leds.o)
 .any.text.leds_init
                0x0000000000008054        0xa contiki-exp5438.a(leds.o)
                0x0000000000008054                leds_init
 .any.text.leds_on
                0x000000000000805e        0xa contiki-exp5438.a(leds.o)
                0x000000000000805e                leds_on
 .any.text.leds_off
                0x0000000000008068        0xe contiki-exp5438.a(leds.o)
                0x0000000000008068                leds_off
 .any.text.watchdog_start
                0x0000000000008076       0x14 contiki-exp5438.a(watchdog.o)
                0x0000000000008076                watchdog_start
 .any.text.watchdog_periodic
                0x000000000000808a       0x12 contiki-exp5438.a(watchdog.o)
                0x000000000000808a                watchdog_periodic
 .any.text.watchdog_stop
                0x000000000000809c       0x16 contiki-exp5438.a(watchdog.o)
                0x000000000000809c                watchdog_stop
 .any.text.watchdog_init
                0x00000000000080b2       0x12 contiki-exp5438.a(watchdog.o)
                0x00000000000080b2                watchdog_init
 .any.text.get_object
                0x00000000000080c4        0x4 contiki-exp5438.a(cc2420.o)
 .any.text.set_object
                0x00000000000080c8        0x4 contiki-exp5438.a(cc2420.o)
 .any.text.strobe
                0x00000000000080cc       0x1a contiki-exp5438.a(cc2420.o)
 .any.text.getreg
                0x00000000000080e6       0x46 contiki-exp5438.a(cc2420.o)
 .any.text.setreg
                0x000000000000812c       0x44 contiki-exp5438.a(cc2420.o)
 .any.text.write_ram
                0x0000000000008170       0x72 contiki-exp5438.a(cc2420.o)
 .any.text.write_fifo_buf
                0x00000000000081e2       0x38 contiki-exp5438.a(cc2420.o)
 .any.text.get_status
                0x000000000000821a       0x1e contiki-exp5438.a(cc2420.o)
 .any.text.set_txpower
                0x0000000000008238       0x24 contiki-exp5438.a(cc2420.o)
 .any.text.cc2420_receiving_packet
                0x000000000000825c        0xa contiki-exp5438.a(cc2420.o)
 .any.text.pending_packet
                0x0000000000008266        0xe contiki-exp5438.a(cc2420.o)
 .any.text.on   0x0000000000008274       0x28 contiki-exp5438.a(cc2420.o)
 .any.text.wait_for_transmission
                0x000000000000829c       0x22 contiki-exp5438.a(cc2420.o)
 .any.text.wait_for_status
                0x00000000000082be       0x24 contiki-exp5438.a(cc2420.o)
 .any.text.getrxdata
                0x00000000000082e2       0x4c contiki-exp5438.a(cc2420.o)
 .any.text.flushrx
                0x000000000000832e       0x1a contiki-exp5438.a(cc2420.o)
 .any.text.off  0x0000000000008348       0x5e contiki-exp5438.a(cc2420.o)
 .any.text.RELEASE_LOCK
                0x00000000000083a6       0x28 contiki-exp5438.a(cc2420.o)
 .any.text.set_frame_filtering
                0x00000000000083ce       0x30 contiki-exp5438.a(cc2420.o)
 .any.text.set_auto_ack
                0x00000000000083fe       0x30 contiki-exp5438.a(cc2420.o)
 .any.text.set_poll_mode
                0x000000000000842e       0x38 contiki-exp5438.a(cc2420.o)
 .any.text.cc2420_prepare
                0x0000000000008466       0x38 contiki-exp5438.a(cc2420.o)
 .any.text.cc2420_on
                0x000000000000849e       0x22 contiki-exp5438.a(cc2420.o)
                0x000000000000849e                cc2420_on
 .any.text.cc2420_off
                0x00000000000084c0       0x30 contiki-exp5438.a(cc2420.o)
                0x00000000000084c0                cc2420_off
 .any.text.cc2420_cca
                0x00000000000084f0       0x5a contiki-exp5438.a(cc2420.o)
 .any.text.cc2420_read
                0x000000000000854a       0xbe contiki-exp5438.a(cc2420.o)
 .any.text.process_thread_cc2420_process
                0x0000000000008608       0x5c contiki-exp5438.a(cc2420.o)
 .any.text.cc2420_set_channel
                0x0000000000008664       0x3a contiki-exp5438.a(cc2420.o)
                0x0000000000008664                cc2420_set_channel
 .any.text.cc2420_set_pan_addr
                0x000000000000869e       0x4c contiki-exp5438.a(cc2420.o)
                0x000000000000869e                cc2420_set_pan_addr
 .any.text.cc2420_interrupt
                0x00000000000086ea       0x18 contiki-exp5438.a(cc2420.o)
                0x00000000000086ea                cc2420_interrupt
 .any.text.cc2420_set_txpower
                0x0000000000008702        0xe contiki-exp5438.a(cc2420.o)
                0x0000000000008702                cc2420_set_txpower
 .any.text.cc2420_get_txpower
                0x0000000000008710       0x1e contiki-exp5438.a(cc2420.o)
                0x0000000000008710                cc2420_get_txpower
 .any.text.cc2420_transmit
                0x000000000000872e      0x10e contiki-exp5438.a(cc2420.o)
 .any.text.cc2420_send
                0x000000000000883c       0x12 contiki-exp5438.a(cc2420.o)
 .any.text.cc2420_rssi
                0x000000000000884e       0x48 contiki-exp5438.a(cc2420.o)
                0x000000000000884e                cc2420_rssi
 .any.text.get_value
                0x0000000000008896      0x104 contiki-exp5438.a(cc2420.o)
 .any.text.cc2420_set_cca_threshold
                0x000000000000899a       0x16 contiki-exp5438.a(cc2420.o)
                0x000000000000899a                cc2420_set_cca_threshold
 .any.text.set_value
                0x00000000000089b0       0xb2 contiki-exp5438.a(cc2420.o)
 .any.text.cc2420_init
                0x0000000000008a62       0xec contiki-exp5438.a(cc2420.o)
                0x0000000000008a62                cc2420_init
 .any.text.cc2420_arch_init
                0x0000000000008b4e       0x14 contiki-exp5438.a(cc2420-arch.o)
                0x0000000000008b4e                cc2420_arch_init
 .any.text.rtimer_arch_init
                0x0000000000008b62        0xe contiki-exp5438.a(rtimer-arch.o)
                0x0000000000008b62                rtimer_arch_init
 .any.text.rtimer_arch_now
                0x0000000000008b70        0xe contiki-exp5438.a(rtimer-arch.o)
                0x0000000000008b70                rtimer_arch_now
 .any.text.rtimer_arch_schedule
                0x0000000000008b7e        0x6 contiki-exp5438.a(rtimer-arch.o)
                0x0000000000008b7e                rtimer_arch_schedule
 .any.text.leds_arch_init
                0x0000000000008b84        0xa contiki-exp5438.a(leds-arch.o)
                0x0000000000008b84                leds_arch_init
 .any.text.leds_arch_set
                0x0000000000008b8e       0x2a contiki-exp5438.a(leds-arch.o)
                0x0000000000008b8e                leds_arch_set
 .any.text.uart1_active
                0x0000000000008bb8        0xe contiki-exp5438.a(uart1x.o)
                0x0000000000008bb8                uart1_active
 .any.text.uart1_writeb
                0x0000000000008bc6       0x16 contiki-exp5438.a(uart1x.o)
                0x0000000000008bc6                uart1_writeb
 .any.text.uart1_init
                0x0000000000008bdc       0x48 contiki-exp5438.a(uart1x.o)
                0x0000000000008bdc                uart1_init
 .any.text.lcd_init
                0x0000000000008c24        0x2 contiki-exp5438.a(lcd.o)
                0x0000000000008c24                lcd_init
 .any.text.lcd_write_char
                0x0000000000008c26        0x2 contiki-exp5438.a(lcd.o)
                0x0000000000008c26                lcd_write_char
 .any.text.lcd_draw_vertical_line
                0x0000000000008c28        0x2 contiki-exp5438.a(lcd.o)
                0x0000000000008c28                lcd_draw_vertical_line
 .any.text.lcd_scroll_x
                0x0000000000008c2a        0x2 contiki-exp5438.a(lcd.o)
                0x0000000000008c2a                lcd_scroll_x
 .any.text.process_thread_duty_cycle_scroller_process
                0x0000000000008c2c      0x134 contiki-exp5438.a(duty-cycle-scro)
 .any.text.duty_cycle_scroller_start
                0x0000000000008d60       0x14 contiki-exp5438.a(duty-cycle-scro)
                0x0000000000008d60                duty_cycle_scroller_start
 .any.text.putchar
                0x0000000000008d74       0x16 contiki-exp5438.a(uart1-putchar.o)
                0x0000000000008d74                putchar
 .any.text.clock_time
                0x0000000000008d8a       0x1a contiki-exp5438.a(clock.o)
                0x0000000000008d8a                clock_time
 .any.text.clock_init
                0x0000000000008da4       0x28 contiki-exp5438.a(clock.o)
                0x0000000000008da4                clock_init
 .any.text.clock_delay
                0x0000000000008dcc        0x6 contiki-exp5438.a(clock.o)
                0x0000000000008dcc                clock_delay
 .any.text.clock_seconds
                0x0000000000008dd2       0x1a contiki-exp5438.a(clock.o)
                0x0000000000008dd2                clock_seconds
 .any.text.sdn_conf_init
                0x0000000000008dec       0x38 contiki-exp5438.a(sdn-conf.o)
                0x0000000000008dec                sdn_conf_init
 .any.text.sdn_init
                0x0000000000008e24       0x5e contiki-exp5438.a(sdn.o)
                0x0000000000008e24                sdn_init
 .any.text.sdn_get_action_data_srh
                0x0000000000008e82       0x74 contiki-exp5438.a(sdn.o)
                0x0000000000008e82                sdn_get_action_data_srh
 .any.text.sdn_connected
                0x0000000000008ef6       0x12 contiki-exp5438.a(sdn.o)
                0x0000000000008ef6                sdn_connected
 .any.text.sdn_is_ctrl_addr
                0x0000000000008f08       0x22 contiki-exp5438.a(sdn.o)
                0x0000000000008f08                sdn_is_ctrl_addr
 .any.text.sdn_node_id_from_ipaddr
                0x0000000000008f2a       0x1a contiki-exp5438.a(sdn.o)
                0x0000000000008f2a                sdn_node_id_from_ipaddr
 .any.text.sdn_get_nbr_link_stats
                0x0000000000008f44       0x10 contiki-exp5438.a(sdn.o)
                0x0000000000008f44                sdn_get_nbr_link_stats
 .any.text.process_thread_usdn_adapter_process
                0x0000000000008f54       0xd0 contiki-exp5438.a(usdn-adapter.o)
 .any.text.register_controller
                0x0000000000009024      0x136 contiki-exp5438.a(usdn-adapter.o)
 .any.text.init
                0x000000000000915a       0x1c contiki-exp5438.a(usdn-adapter.o)
                0x000000000000915a                init
 .any.text.get_conn
                0x0000000000009176       0x46 contiki-exp5438.a(usdn-adapter.o)
                0x0000000000009176                get_conn
 .any.text.send
                0x00000000000091bc       0x7e contiki-exp5438.a(usdn-adapter.o)
 .any.text.retry
                0x000000000000923a       0x78 contiki-exp5438.a(usdn-driver.o)
 .any.text.init
                0x00000000000092b2        0xa contiki-exp5438.a(usdn-driver.o)
 .any.text.sdn_fwd
                0x00000000000092bc       0x9a contiki-exp5438.a(usdn-driver.o)
 .any.text.action_handler
                0x0000000000009356       0xa4 contiki-exp5438.a(usdn-driver.o)
 .any.text.usdn_add_do_callback_on_dest
                0x00000000000093fa       0x42 contiki-exp5438.a(usdn-driver.o)
                0x00000000000093fa                usdn_add_do_callback_on_dest
 .any.text.usdn_add_accept_on_icmp6_type
                0x000000000000943c       0x54 contiki-exp5438.a(usdn-driver.o)
                0x000000000000943c                usdn_add_accept_on_icmp6_type
 .any.text.usdn_add_accept_on_dest
                0x0000000000009490       0x3e contiki-exp5438.a(usdn-driver.o)
                0x0000000000009490                usdn_add_accept_on_dest
 .any.text.usdn_add_accept_on_src
                0x00000000000094ce       0x3c contiki-exp5438.a(usdn-driver.o)
                0x00000000000094ce                usdn_add_accept_on_src
 .any.text.usdn_add_fallback_on_dest
                0x000000000000950a       0x40 contiki-exp5438.a(usdn-driver.o)
                0x000000000000950a                usdn_add_fallback_on_dest
 .any.text.usdn_add_srh_on_dest
                0x000000000000954a       0x6a contiki-exp5438.a(usdn-driver.o)
                0x000000000000954a                usdn_add_srh_on_dest
 .any.text.usdn_add_fwd_on_flow
                0x00000000000095b4       0x60 contiki-exp5438.a(usdn-driver.o)
                0x00000000000095b4                usdn_add_fwd_on_flow
 .any.text.usdn_add_fwd_on_dest
                0x0000000000009614       0x48 contiki-exp5438.a(usdn-driver.o)
                0x0000000000009614                usdn_add_fwd_on_dest
 .any.text.sdn_query
                0x000000000000965c       0x98 contiki-exp5438.a(usdn-driver.o)
                0x000000000000965c                sdn_query
 .any.text.process
                0x00000000000096f4      0x118 contiki-exp5438.a(usdn-driver.o)
 .any.text.init
                0x000000000000980c        0x2 contiki-exp5438.a(usdn-engine.o)
 .any.text.nsu_output.constprop.7
                0x000000000000980e       0x8a contiki-exp5438.a(usdn-engine.o)
 .any.text.send.constprop.8
                0x0000000000009898       0xee contiki-exp5438.a(usdn-engine.o)
 .any.text.handle_join_timer
                0x0000000000009986       0x7a contiki-exp5438.a(usdn-engine.o)
 .any.text.controller_join
                0x0000000000009a00       0xb8 contiki-exp5438.a(usdn-engine.o)
 .any.text.handle_update_timer
                0x0000000000009ab8       0x7c contiki-exp5438.a(usdn-engine.o)
 .any.text.controller_update
                0x0000000000009b34       0xec contiki-exp5438.a(usdn-engine.o)
 .any.text.in   0x0000000000009c20      0x1d0 contiki-exp5438.a(usdn-engine.o)
 .any.text.controller_query
                0x0000000000009df0       0x92 contiki-exp5438.a(usdn-engine.o)
 .any.text.autostart_start
                0x0000000000009e82       0x16 contiki-exp5438.a(autostart.o)
                0x0000000000009e82                autostart_start
 .any.text.energest_init
                0x0000000000009e98       0x24 contiki-exp5438.a(energest.o)
                0x0000000000009e98                energest_init
 .any.text.energest_type_time
                0x0000000000009ebc       0x3c contiki-exp5438.a(energest.o)
                0x0000000000009ebc                energest_type_time
 .any.text.energest_type_set
                0x0000000000009ef8        0xc contiki-exp5438.a(energest.o)
                0x0000000000009ef8                energest_type_set
 .any.text.energest_flush
                0x0000000000009f04       0x38 contiki-exp5438.a(energest.o)
                0x0000000000009f04                energest_flush
 .any.text.update_time
                0x0000000000009f3c       0x70 contiki-exp5438.a(etimer.o)
 .any.text.etimer_request_poll
                0x0000000000009fac        0xa contiki-exp5438.a(etimer.o)
                0x0000000000009fac                etimer_request_poll
 .any.text.process_thread_etimer_process
                0x0000000000009fb6       0xc4 contiki-exp5438.a(etimer.o)
 .any.text.add_timer
                0x000000000000a07a       0x40 contiki-exp5438.a(etimer.o)
 .any.text.etimer_set
                0x000000000000a0ba       0x12 contiki-exp5438.a(etimer.o)
                0x000000000000a0ba                etimer_set
 .any.text.etimer_reset
                0x000000000000a0cc       0x12 contiki-exp5438.a(etimer.o)
                0x000000000000a0cc                etimer_reset
 .any.text.etimer_restart
                0x000000000000a0de       0x12 contiki-exp5438.a(etimer.o)
                0x000000000000a0de                etimer_restart
 .any.text.etimer_expired
                0x000000000000a0f0        0xe contiki-exp5438.a(etimer.o)
                0x000000000000a0f0                etimer_expired
 .any.text.etimer_expiration_time
                0x000000000000a0fe       0x14 contiki-exp5438.a(etimer.o)
                0x000000000000a0fe                etimer_expiration_time
 .any.text.etimer_pending
                0x000000000000a112        0xc contiki-exp5438.a(etimer.o)
                0x000000000000a112                etimer_pending
 .any.text.etimer_next_expiration_time
                0x000000000000a11e       0x16 contiki-exp5438.a(etimer.o)
                0x000000000000a11e                etimer_next_expiration_time
 .any.text.etimer_stop
                0x000000000000a134       0x3e contiki-exp5438.a(etimer.o)
                0x000000000000a134                etimer_stop
 .any.text.log_6addr
                0x000000000000a172       0xbc contiki-exp5438.a(log-ng.o)
                0x000000000000a172                log_6addr
 .any.text.process_thread_ctimer_process
                0x000000000000a22e       0xa0 contiki-exp5438.a(ctimer.o)
 .any.text.ctimer_init
                0x000000000000a2ce       0x18 contiki-exp5438.a(ctimer.o)
                0x000000000000a2ce                ctimer_init
 .any.text.ctimer_set_with_process
                0x000000000000a2e6       0x4a contiki-exp5438.a(ctimer.o)
                0x000000000000a2e6                ctimer_set_with_process
 .any.text.ctimer_set
                0x000000000000a330       0x10 contiki-exp5438.a(ctimer.o)
                0x000000000000a330                ctimer_set
 .any.text.ctimer_reset
                0x000000000000a340       0x2c contiki-exp5438.a(ctimer.o)
                0x000000000000a340                ctimer_reset
 .any.text.ctimer_restart
                0x000000000000a36c       0x2c contiki-exp5438.a(ctimer.o)
                0x000000000000a36c                ctimer_restart
 .any.text.ctimer_stop
                0x000000000000a398       0x28 contiki-exp5438.a(ctimer.o)
                0x000000000000a398                ctimer_stop
 .any.text.call_process
                0x000000000000a3c0       0x40 contiki-exp5438.a(process.o)
 .any.text.exit_process
                0x000000000000a400       0x88 contiki-exp5438.a(process.o)
 .any.text.do_poll
                0x000000000000a488       0x30 contiki-exp5438.a(process.o)
 .any.text.process_alloc_event
                0x000000000000a4b8        0xe contiki-exp5438.a(process.o)
                0x000000000000a4b8                process_alloc_event
 .any.text.process_init
                0x000000000000a4c6       0x1c contiki-exp5438.a(process.o)
                0x000000000000a4c6                process_init
 .any.text.process_run
                0x000000000000a4e2       0x8c contiki-exp5438.a(process.o)
                0x000000000000a4e2                process_run
 .any.text.process_nevents
                0x000000000000a56e        0xe contiki-exp5438.a(process.o)
                0x000000000000a56e                process_nevents
 .any.text.process_post
                0x000000000000a57c       0x4a contiki-exp5438.a(process.o)
                0x000000000000a57c                process_post
 .any.text.process_post_synch
                0x000000000000a5c6       0x12 contiki-exp5438.a(process.o)
                0x000000000000a5c6                process_post_synch
 .any.text.process_start
                0x000000000000a5d8       0x36 contiki-exp5438.a(process.o)
                0x000000000000a5d8                process_start
 .any.text.process_poll
                0x000000000000a60e       0x18 contiki-exp5438.a(process.o)
                0x000000000000a60e                process_poll
 .any.text.rtimer_init
                0x000000000000a626        0x6 contiki-exp5438.a(rtimer.o)
                0x000000000000a626                rtimer_init
 .any.text.rtimer_run_next
                0x000000000000a62c       0x26 contiki-exp5438.a(rtimer.o)
                0x000000000000a62c                rtimer_run_next
 .any.text.timer_set
                0x000000000000a652       0x1c contiki-exp5438.a(timer.o)
                0x000000000000a652                timer_set
 .any.text.timer_reset
                0x000000000000a66e        0xe contiki-exp5438.a(timer.o)
                0x000000000000a66e                timer_reset
 .any.text.timer_restart
                0x000000000000a67c       0x14 contiki-exp5438.a(timer.o)
                0x000000000000a67c                timer_restart
 .any.text.timer_expired
                0x000000000000a690       0x2a contiki-exp5438.a(timer.o)
                0x000000000000a690                timer_expired
 .any.text.list_init
                0x000000000000a6ba        0x6 contiki-exp5438.a(list.o)
                0x000000000000a6ba                list_init
 .any.text.list_head
                0x000000000000a6c0        0x4 contiki-exp5438.a(list.o)
                0x000000000000a6c0                list_head
 .any.text.list_tail
                0x000000000000a6c4       0x12 contiki-exp5438.a(list.o)
                0x000000000000a6c4                list_tail
 .any.text.list_remove
                0x000000000000a6d6       0x34 contiki-exp5438.a(list.o)
                0x000000000000a6d6                list_remove
 .any.text.list_push
                0x000000000000a70a       0x16 contiki-exp5438.a(list.o)
                0x000000000000a70a                list_push
 .any.text.list_add
                0x000000000000a720       0x26 contiki-exp5438.a(list.o)
                0x000000000000a720                list_add
 .any.text.list_length
                0x000000000000a746       0x10 contiki-exp5438.a(list.o)
                0x000000000000a746                list_length
 .any.text.list_item_next
                0x000000000000a756        0xc contiki-exp5438.a(list.o)
                0x000000000000a756                list_item_next
 .any.text.memb_init
                0x000000000000a762       0x36 contiki-exp5438.a(memb.o)
                0x000000000000a762                memb_init
 .any.text.memb_alloc
                0x000000000000a798       0x3e contiki-exp5438.a(memb.o)
                0x000000000000a798                memb_alloc
 .any.text.memb_free
                0x000000000000a7d6       0x3a contiki-exp5438.a(memb.o)
                0x000000000000a7d6                memb_free
 .any.text.memb_inmemb
                0x000000000000a810       0x2a contiki-exp5438.a(memb.o)
                0x000000000000a810                memb_inmemb
 .any.text.random_rand
                0x000000000000a83a        0x6 contiki-exp5438.a(random.o)
                0x000000000000a83a                random_rand
 .any.text.uip_ds6_list_loop
                0x000000000000a840       0x66 contiki-exp5438.a(uip-ds6.o)
                0x000000000000a840                uip_ds6_list_loop
 .any.text.uip_ds6_prefix_add
                0x000000000000a8a6       0x70 contiki-exp5438.a(uip-ds6.o)
                0x000000000000a8a6                uip_ds6_prefix_add
 .any.text.uip_ds6_is_addr_onlink
                0x000000000000a916       0x42 contiki-exp5438.a(uip-ds6.o)
                0x000000000000a916                uip_ds6_is_addr_onlink
 .any.text.uip_ds6_addr_lookup
                0x000000000000a958       0x2a contiki-exp5438.a(uip-ds6.o)
                0x000000000000a958                uip_ds6_addr_lookup
 .any.text.uip_ds6_get_link_local
                0x000000000000a982       0x3e contiki-exp5438.a(uip-ds6.o)
                0x000000000000a982                uip_ds6_get_link_local
 .any.text.uip_ds6_maddr_add
                0x000000000000a9c0       0x48 contiki-exp5438.a(uip-ds6.o)
                0x000000000000a9c0                uip_ds6_maddr_add
 .any.text.uip_ds6_addr_add
                0x000000000000aa08       0xb4 contiki-exp5438.a(uip-ds6.o)
                0x000000000000aa08                uip_ds6_addr_add
 .any.text.uip_ds6_maddr_rm
                0x000000000000aabc        0xa contiki-exp5438.a(uip-ds6.o)
                0x000000000000aabc                uip_ds6_maddr_rm
 .any.text.uip_ds6_maddr_lookup
                0x000000000000aac6       0x2a contiki-exp5438.a(uip-ds6.o)
                0x000000000000aac6                uip_ds6_maddr_lookup
 .any.text.uip_ds6_addr_rm
                0x000000000000aaf0       0x54 contiki-exp5438.a(uip-ds6.o)
                0x000000000000aaf0                uip_ds6_addr_rm
 .any.text.uip_ds6_periodic
                0x000000000000ab44       0x46 contiki-exp5438.a(uip-ds6.o)
                0x000000000000ab44                uip_ds6_periodic
 .any.text.uip_ds6_set_addr_iid
                0x000000000000ab8a       0x14 contiki-exp5438.a(uip-ds6.o)
                0x000000000000ab8a                uip_ds6_set_addr_iid
 .any.text.get_match_length
                0x000000000000ab9e       0x3c contiki-exp5438.a(uip-ds6.o)
                0x000000000000ab9e                get_match_length
 .any.text.uip_ds6_select_src
                0x000000000000abda       0x9a contiki-exp5438.a(uip-ds6.o)
                0x000000000000abda                uip_ds6_select_src
 .any.text.uip_ds6_compute_reachable_time
                0x000000000000ac74       0x36 contiki-exp5438.a(uip-ds6.o)
                0x000000000000ac74                uip_ds6_compute_reachable_time
 .any.text.uip_ds6_init
                0x000000000000acaa      0x13a contiki-exp5438.a(uip-ds6.o)
                0x000000000000acaa                uip_ds6_init
 .any.text.uip_ds6_route_init
                0x000000000000ade4       0x12 contiki-exp5438.a(uip-ds6-route.o)
                0x000000000000ade4                uip_ds6_route_init
 .any.text.uip_ds6_route_nexthop
                0x000000000000adf6        0x4 contiki-exp5438.a(uip-ds6-route.o)
                0x000000000000adf6                uip_ds6_route_nexthop
 .any.text.uip_ds6_route_is_nexthop
                0x000000000000adfa        0x4 contiki-exp5438.a(uip-ds6-route.o)
                0x000000000000adfa                uip_ds6_route_is_nexthop
 .any.text.uip_ds6_route_lookup
                0x000000000000adfe        0x4 contiki-exp5438.a(uip-ds6-route.o)
                0x000000000000adfe                uip_ds6_route_lookup
 .any.text.uip_ds6_route_rm
                0x000000000000ae02        0x2 contiki-exp5438.a(uip-ds6-route.o)
                0x000000000000ae02                uip_ds6_route_rm
 .any.text.uip_ds6_defrt_rm
                0x000000000000ae04       0x38 contiki-exp5438.a(uip-ds6-route.o)
                0x000000000000ae04                uip_ds6_defrt_rm
 .any.text.uip_ds6_defrt_lookup
                0x000000000000ae3c       0x32 contiki-exp5438.a(uip-ds6-route.o)
                0x000000000000ae3c                uip_ds6_defrt_lookup
 .any.text.uip_ds6_defrt_add
                0x000000000000ae6e       0x5e contiki-exp5438.a(uip-ds6-route.o)
                0x000000000000ae6e                uip_ds6_defrt_add
 .any.text.uip_ds6_defrt_choose
                0x000000000000aecc       0x36 contiki-exp5438.a(uip-ds6-route.o)
                0x000000000000aecc                uip_ds6_defrt_choose
 .any.text.uip_ds6_defrt_periodic
                0x000000000000af02       0x38 contiki-exp5438.a(uip-ds6-route.o)
                0x000000000000af02                uip_ds6_defrt_periodic
 .any.text.chksum
                0x000000000000af3a       0x32 contiki-exp5438.a(uip6.o)
 .any.text.upper_layer_chksum
                0x000000000000af6c       0x70 contiki-exp5438.a(uip6.o)
 .any.text.ext_hdr_options_process
                0x000000000000afdc      0x110 contiki-exp5438.a(uip6.o)
 .any.text.uip_icmp6chksum
                0x000000000000b0ec        0xa contiki-exp5438.a(uip6.o)
                0x000000000000b0ec                uip_icmp6chksum
 .any.text.uip_udpchksum
                0x000000000000b0f6        0xa contiki-exp5438.a(uip6.o)
                0x000000000000b0f6                uip_udpchksum
 .any.text.uip_init
                0x000000000000b100       0x26 contiki-exp5438.a(uip6.o)
                0x000000000000b100                uip_init
 .any.text.remove_ext_hdr
                0x000000000000b126       0x6e contiki-exp5438.a(uip6.o)
                0x000000000000b126                remove_ext_hdr
 .any.text.uip_udp_new
                0x000000000000b194       0xa2 contiki-exp5438.a(uip6.o)
                0x000000000000b194                uip_udp_new
 .any.text.uip_process
                0x000000000000b236      0x67a contiki-exp5438.a(uip6.o)
                0x000000000000b236                uip_process
 .any.text.uip_htonl
                0x000000000000b8b0       0x2a contiki-exp5438.a(uip6.o)
                0x000000000000b8b0                uip_htonl
 .any.text.uip_ds6_nbr_rm
                0x000000000000b8da       0x1e contiki-exp5438.a(uip-ds6-nbr.o)
                0x000000000000b8da                uip_ds6_nbr_rm
 .any.text.uip_ds6_neighbors_init
                0x000000000000b8f8       0x12 contiki-exp5438.a(uip-ds6-nbr.o)
                0x000000000000b8f8                uip_ds6_neighbors_init
 .any.text.uip_ds6_nbr_add
                0x000000000000b90a       0x36 contiki-exp5438.a(uip-ds6-nbr.o)
                0x000000000000b90a                uip_ds6_nbr_add
 .any.text.uip_ds6_nbr_get_ll
                0x000000000000b940        0xc contiki-exp5438.a(uip-ds6-nbr.o)
                0x000000000000b940                uip_ds6_nbr_get_ll
 .any.text.uip_ds6_nbr_num
                0x000000000000b94c       0x24 contiki-exp5438.a(uip-ds6-nbr.o)
                0x000000000000b94c                uip_ds6_nbr_num
 .any.text.uip_ds6_nbr_lookup
                0x000000000000b970       0x3e contiki-exp5438.a(uip-ds6-nbr.o)
                0x000000000000b970                uip_ds6_nbr_lookup
 .any.text.uip_ds6_nbr_ll_lookup
                0x000000000000b9ae        0xc contiki-exp5438.a(uip-ds6-nbr.o)
                0x000000000000b9ae                uip_ds6_nbr_ll_lookup
 .any.text.uip_ds6_nbr_ipaddr_from_lladdr
                0x000000000000b9ba        0x6 contiki-exp5438.a(uip-ds6-nbr.o)
                0x000000000000b9ba                uip_ds6_nbr_ipaddr_from_lladdr
 .any.text.uip_ds6_nbr_lladdr_from_ipaddr
                0x000000000000b9c0       0x12 contiki-exp5438.a(uip-ds6-nbr.o)
                0x000000000000b9c0                uip_ds6_nbr_lladdr_from_ipaddr
 .any.text.uip_ds6_link_neighbor_callback
                0x000000000000b9d2       0x32 contiki-exp5438.a(uip-ds6-nbr.o)
                0x000000000000b9d2                uip_ds6_link_neighbor_callback
 .any.text.ns_input
                0x000000000000ba04      0x276 contiki-exp5438.a(uip-nd6.o)
 .any.text.uip_nd6_init
                0x000000000000bc7a        0xa contiki-exp5438.a(uip-nd6.o)
                0x000000000000bc7a                uip_nd6_init
 .any.text.set_packet_attrs
                0x000000000000bc84       0x46 contiki-exp5438.a(sicslowpan.o)
 .any.text.addr_context_lookup_by_number
                0x000000000000bcca       0x30 contiki-exp5438.a(sicslowpan.o)
 .any.text.compress_addr_64
                0x000000000000bcfa       0x90 contiki-exp5438.a(sicslowpan.o)
 .any.text.uncompress_addr
                0x000000000000bd8a       0x92 contiki-exp5438.a(sicslowpan.o)
 .any.text.sicslowpan_init
                0x000000000000be1c       0x24 contiki-exp5438.a(sicslowpan.o)
                0x000000000000be1c                sicslowpan_init
 .any.text.addr_context_lookup_by_prefix
                0x000000000000be40       0x4a contiki-exp5438.a(sicslowpan.o)
 .any.text.packet_sent
                0x000000000000be8a       0x22 contiki-exp5438.a(sicslowpan.o)
 .any.text.input
                0x000000000000beac      0x43e contiki-exp5438.a(sicslowpan.o)
 .any.text.output
                0x000000000000c2ea      0x566 contiki-exp5438.a(sicslowpan.o)
 .any.text.uip_debug_ipaddr_print
                0x000000000000c850       0xbc contiki-exp5438.a(uip-debug.o)
                0x000000000000c850                uip_debug_ipaddr_print
 .any.text.uip_udp_packet_send
                0x000000000000c90c       0x4a contiki-exp5438.a(uip-udp-packet.)
                0x000000000000c90c                uip_udp_packet_send
 .any.text.uip_udp_packet_sendto
                0x000000000000c956       0x56 contiki-exp5438.a(uip-udp-packet.)
                0x000000000000c956                uip_udp_packet_sendto
 .any.text.tcpip_output
                0x000000000000c9ac       0x10 contiki-exp5438.a(tcpip.o)
                0x000000000000c9ac                tcpip_output
 .any.text.tcpip_set_outputfunc
                0x000000000000c9bc        0x6 contiki-exp5438.a(tcpip.o)
                0x000000000000c9bc                tcpip_set_outputfunc
 .any.text.udp_new
                0x000000000000c9c2       0x1a contiki-exp5438.a(tcpip.o)
                0x000000000000c9c2                udp_new
 .any.text.tcpip_input
                0x000000000000c9dc       0x16 contiki-exp5438.a(tcpip.o)
                0x000000000000c9dc                tcpip_input
 .any.text.tcpip_ipv6_output
                0x000000000000c9f2       0xfa contiki-exp5438.a(tcpip.o)
                0x000000000000c9f2                tcpip_ipv6_output
 .any.text.process_thread_tcpip_process
                0x000000000000caec       0xd0 contiki-exp5438.a(tcpip.o)
 .any.text.tcpip_uipcall
                0x000000000000cbbc       0x2a contiki-exp5438.a(tcpip.o)
                0x000000000000cbbc                tcpip_uipcall
 .any.text.process_thread_simple_udp_process
                0x000000000000cbe6       0xac contiki-exp5438.a(simple-udp.o)
 .any.text.simple_udp_sendto
                0x000000000000cc92       0x28 contiki-exp5438.a(simple-udp.o)
                0x000000000000cc92                simple_udp_sendto
 .any.text.simple_udp_register
                0x000000000000ccba       0x88 contiki-exp5438.a(simple-udp.o)
                0x000000000000ccba                simple_udp_register
 .any.text.update_hbh_header
                0x000000000000cd42       0x78 contiki-exp5438.a(rpl-ext-header.)
 .any.text.insert_hbh_header
                0x000000000000cdba       0xb2 contiki-exp5438.a(rpl-ext-header.)
 .any.text.rpl_verify_hbh_header
                0x000000000000ce6c       0xee contiki-exp5438.a(rpl-ext-header.)
                0x000000000000ce6c                rpl_verify_hbh_header
 .any.text.rpl_srh_get_next_hop
                0x000000000000cf5a       0xba contiki-exp5438.a(rpl-ext-header.)
                0x000000000000cf5a                rpl_srh_get_next_hop
 .any.text.rpl_process_srh_header
                0x000000000000d014      0x116 contiki-exp5438.a(rpl-ext-header.)
                0x000000000000d014                rpl_process_srh_header
 .any.text.rpl_remove_header
                0x000000000000d12a       0x76 contiki-exp5438.a(rpl-ext-header.)
                0x000000000000d12a                rpl_remove_header
 .any.text.rpl_update_header
                0x000000000000d1a0      0x25c contiki-exp5438.a(rpl-ext-header.)
                0x000000000000d1a0                rpl_update_header
 .any.text.rpl_get_mode
                0x000000000000d3fc        0x6 contiki-exp5438.a(rpl.o)
                0x000000000000d3fc                rpl_get_mode
 .any.text.rpl_link_neighbor_callback
                0x000000000000d402       0x4c contiki-exp5438.a(rpl.o)
                0x000000000000d402                rpl_link_neighbor_callback
 .any.text.rpl_ipv6_neighbor_callback
                0x000000000000d44e       0x1e contiki-exp5438.a(rpl.o)
                0x000000000000d44e                rpl_ipv6_neighbor_callback
 .any.text.rpl_purge_dags
                0x000000000000d46c       0x60 contiki-exp5438.a(rpl.o)
                0x000000000000d46c                rpl_purge_dags
 .any.text.rpl_init
                0x000000000000d4cc       0x48 contiki-exp5438.a(rpl.o)
                0x000000000000d4cc                rpl_init
 .any.text.node_matches_address
                0x000000000000d514       0x46 contiki-exp5438.a(rpl-ns.o)
 .any.text.rpl_ns_get_node
                0x000000000000d55a       0x30 contiki-exp5438.a(rpl-ns.o)
                0x000000000000d55a                rpl_ns_get_node
 .any.text.rpl_ns_print_nodelist
                0x000000000000d58a       0x2e contiki-exp5438.a(rpl-ns.o)
                0x000000000000d58a                rpl_ns_print_nodelist
 .any.text.rpl_ns_is_node_reachable
                0x000000000000d5b8       0x32 contiki-exp5438.a(rpl-ns.o)
                0x000000000000d5b8                rpl_ns_is_node_reachable
 .any.text.rpl_ns_expire_parent
                0x000000000000d5ea       0x34 contiki-exp5438.a(rpl-ns.o)
                0x000000000000d5ea                rpl_ns_expire_parent
 .any.text.rpl_ns_update_node
                0x000000000000d61e       0xac contiki-exp5438.a(rpl-ns.o)
                0x000000000000d61e                rpl_ns_update_node
 .any.text.rpl_ns_init
                0x000000000000d6ca       0x16 contiki-exp5438.a(rpl-ns.o)
                0x000000000000d6ca                rpl_ns_init
 .any.text.rpl_ns_get_node_global_addr
                0x000000000000d6e0       0x2e contiki-exp5438.a(rpl-ns.o)
                0x000000000000d6e0                rpl_ns_get_node_global_addr
 .any.text.rpl_ns_periodic
                0x000000000000d70e       0x8c contiki-exp5438.a(rpl-ns.o)
                0x000000000000d70e                rpl_ns_periodic
 .any.text.lollipop_greater_than
                0x000000000000d79a       0x3c contiki-exp5438.a(rpl-dag.o)
 .any.text.find_parent_any_dag_any_instance
                0x000000000000d7d6       0x14 contiki-exp5438.a(rpl-dag.o)
 .any.text.rpl_set_preferred_parent
                0x000000000000d7ea       0x2c contiki-exp5438.a(rpl-dag.o)
 .any.text.set_ip_from_prefix
                0x000000000000d816       0x30 contiki-exp5438.a(rpl-dag.o)
 .any.text.check_prefix
                0x000000000000d846       0x70 contiki-exp5438.a(rpl-dag.o)
 .any.text.rpl_dag_init
                0x000000000000d8b6        0xe contiki-exp5438.a(rpl-dag.o)
                0x000000000000d8b6                rpl_dag_init
 .any.text.rpl_get_parent
                0x000000000000d8c4        0xc contiki-exp5438.a(rpl-dag.o)
                0x000000000000d8c4                rpl_get_parent
 .any.text.rpl_rank_via_parent
                0x000000000000d8d0       0x2a contiki-exp5438.a(rpl-dag.o)
                0x000000000000d8d0                rpl_rank_via_parent
 .any.text.rpl_get_parent_lladdr
                0x000000000000d8fa        0xc contiki-exp5438.a(rpl-dag.o)
                0x000000000000d8fa                rpl_get_parent_lladdr
 .any.text.rpl_get_parent_ipaddr
                0x000000000000d906        0xa contiki-exp5438.a(rpl-dag.o)
                0x000000000000d906                rpl_get_parent_ipaddr
 .any.text.rpl_get_parent_link_stats
                0x000000000000d910        0xa contiki-exp5438.a(rpl-dag.o)
                0x000000000000d910                rpl_get_parent_link_stats
 .any.text.rpl_parent_is_fresh
                0x000000000000d91a        0xa contiki-exp5438.a(rpl-dag.o)
                0x000000000000d91a                rpl_parent_is_fresh
 .any.text.best_parent
                0x000000000000d924       0x72 contiki-exp5438.a(rpl-dag.o)
 .any.text.rpl_set_prefix
                0x000000000000d996       0x74 contiki-exp5438.a(rpl-dag.o)
                0x000000000000d996                rpl_set_prefix
 .any.text.rpl_set_default_route
                0x000000000000da0a       0x3a contiki-exp5438.a(rpl-dag.o)
                0x000000000000da0a                rpl_set_default_route
 .any.text.rpl_alloc_instance
                0x000000000000da44       0x38 contiki-exp5438.a(rpl-dag.o)
                0x000000000000da44                rpl_alloc_instance
 .any.text.rpl_add_parent
                0x000000000000da7c       0x3a contiki-exp5438.a(rpl-dag.o)
                0x000000000000da7c                rpl_add_parent
 .any.text.rpl_find_parent
                0x000000000000dab6       0x1a contiki-exp5438.a(rpl-dag.o)
                0x000000000000dab6                rpl_find_parent
 .any.text.rpl_find_parent_any_dag
                0x000000000000dad0       0x22 contiki-exp5438.a(rpl-dag.o)
                0x000000000000dad0                rpl_find_parent_any_dag
 .any.text.rpl_select_parent
                0x000000000000daf2       0x62 contiki-exp5438.a(rpl-dag.o)
                0x000000000000daf2                rpl_select_parent
 .any.text.rpl_select_dag
                0x000000000000db54      0x140 contiki-exp5438.a(rpl-dag.o)
                0x000000000000db54                rpl_select_dag
 .any.text.rpl_nullify_parent
                0x000000000000dc94       0x46 contiki-exp5438.a(rpl-dag.o)
                0x000000000000dc94                rpl_nullify_parent
 .any.text.rpl_remove_parent
                0x000000000000dcda       0x16 contiki-exp5438.a(rpl-dag.o)
                0x000000000000dcda                rpl_remove_parent
 .any.text.nbr_callback
                0x000000000000dcf0        0x6 contiki-exp5438.a(rpl-dag.o)
 .any.text.remove_parents.constprop.4
                0x000000000000dcf6       0x2c contiki-exp5438.a(rpl-dag.o)
 .any.text.rpl_free_dag
                0x000000000000dd22       0x2e contiki-exp5438.a(rpl-dag.o)
                0x000000000000dd22                rpl_free_dag
 .any.text.rpl_move_parent
                0x000000000000dd50       0x3e contiki-exp5438.a(rpl-dag.o)
                0x000000000000dd50                rpl_move_parent
 .any.text.rpl_get_dag
                0x000000000000dd8e       0x5c contiki-exp5438.a(rpl-dag.o)
                0x000000000000dd8e                rpl_get_dag
 .any.text.rpl_get_any_dag
                0x000000000000ddea       0x16 contiki-exp5438.a(rpl-dag.o)
                0x000000000000ddea                rpl_get_any_dag
 .any.text.rpl_get_instance
                0x000000000000de00       0x16 contiki-exp5438.a(rpl-dag.o)
                0x000000000000de00                rpl_get_instance
 .any.text.rpl_alloc_dag
                0x000000000000de16       0x60 contiki-exp5438.a(rpl-dag.o)
                0x000000000000de16                rpl_alloc_dag
 .any.text.rpl_repair_root
                0x000000000000de76       0x4c contiki-exp5438.a(rpl-dag.o)
                0x000000000000de76                rpl_repair_root
 .any.text.rpl_find_of
                0x000000000000dec2       0x10 contiki-exp5438.a(rpl-dag.o)
                0x000000000000dec2                rpl_find_of
 .any.text.rpl_set_root
                0x000000000000ded2      0x120 contiki-exp5438.a(rpl-dag.o)
                0x000000000000ded2                rpl_set_root
 .any.text.rpl_join_instance
                0x000000000000dff2      0x162 contiki-exp5438.a(rpl-dag.o)
                0x000000000000dff2                rpl_join_instance
 .any.text.rpl_local_repair
                0x000000000000e154       0x66 contiki-exp5438.a(rpl-dag.o)
                0x000000000000e154                rpl_local_repair
 .any.text.rpl_process_parent_event
                0x000000000000e1ba       0x76 contiki-exp5438.a(rpl-dag.o)
                0x000000000000e1ba                rpl_process_parent_event
 .any.text.rpl_recalculate_ranks
                0x000000000000e230       0x44 contiki-exp5438.a(rpl-dag.o)
                0x000000000000e230                rpl_recalculate_ranks
 .any.text.rpl_add_dag
                0x000000000000e274      0x120 contiki-exp5438.a(rpl-dag.o)
                0x000000000000e274                rpl_add_dag
 .any.text.queuebuf_init
                0x000000000000e394       0x12 contiki-exp5438.a(queuebuf.o)
                0x000000000000e394                queuebuf_init
 .any.text.queuebuf_new_from_packetbuf
                0x000000000000e3a6       0x4e contiki-exp5438.a(queuebuf.o)
                0x000000000000e3a6                queuebuf_new_from_packetbuf
 .any.text.queuebuf_update_attr_from_packetbuf
                0x000000000000e3f4       0x12 contiki-exp5438.a(queuebuf.o)
                0x000000000000e3f4                queuebuf_update_attr_from_packetbuf
 .any.text.queuebuf_free
                0x000000000000e406       0x2a contiki-exp5438.a(queuebuf.o)
                0x000000000000e406                queuebuf_free
 .any.text.queuebuf_to_packetbuf
                0x000000000000e430       0x32 contiki-exp5438.a(queuebuf.o)
                0x000000000000e430                queuebuf_to_packetbuf
 .any.text.queuebuf_attr
                0x000000000000e462        0xe contiki-exp5438.a(queuebuf.o)
                0x000000000000e462                queuebuf_attr
 .any.text.key_from_index
                0x000000000000e470       0x18 contiki-exp5438.a(nbr-table.o)
 .any.text.item_from_index
                0x000000000000e488       0x2a contiki-exp5438.a(nbr-table.o)
 .any.text.index_from_key
                0x000000000000e4b2       0x26 contiki-exp5438.a(nbr-table.o)
 .any.text.index_from_item
                0x000000000000e4d8       0x1e contiki-exp5438.a(nbr-table.o)
 .any.text.nbr_set_bit
                0x000000000000e4f6       0x50 contiki-exp5438.a(nbr-table.o)
 .any.text.init
                0x000000000000e546        0x2 contiki-exp5438.a(nullsec.o)

.rodata         0x000000000000e548     0x1839
                0x000000000000e548                . = ALIGN (0x2)
 *(.rodata .rodata.* .gnu.linkonce.r.*)
 .rodata.udp_rx_callback
                0x000000000000e548       0x33 sdn-controller.co
 .rodata.process_thread_sdn_controller_process
                0x000000000000e57b       0xaf sdn-controller.co
 .rodata.autostart_processes
                0x000000000000e62a        0x4 sdn-controller.co
                0x000000000000e62a                autostart_processes
 .rodata        0x000000000000e62e        0xf sdn-controller.co
 .rodata.print_division
                0x000000000000e63d        0xa obj_exp5438/sdn-stats.o
 .rodata.sdn_stats_print
                0x000000000000e647       0x39 obj_exp5438/sdn-stats.o
 .rodata.sdn_energy_print
                0x000000000000e680       0x1e obj_exp5438/sdn-stats.o
 .rodata.process_thread_sdn_stats_process
                0x000000000000e69e       0x1f obj_exp5438/sdn-stats.o
 .rodata        0x000000000000e6bd       0x1f obj_exp5438/sdn-stats.o
 .rodata        0x000000000000e6dc       0xb0 obj_exp5438/contiki-exp5438-main.o
 .rodata.atom_set_handshake_timer
                0x000000000000e78c       0x3e contiki-exp5438.a(atom.o)
 .rodata.atom_run
                0x000000000000e7ca       0x5d contiki-exp5438.a(atom.o)
 .rodata.process_thread_controller_process
                0x000000000000e827       0x19 contiki-exp5438.a(atom.o)
 .rodata        0x000000000000e840       0x18 contiki-exp5438.a(atom.o)
 .rodata.atom_buffer_add
                0x000000000000e858       0x2b contiki-exp5438.a(atom-buffer.o)
 .rodata.atom_buffer_head
                0x000000000000e883       0x14 contiki-exp5438.a(atom-buffer.o)
 .rodata.node_allocate
                0x000000000000e897       0x3f contiki-exp5438.a(atom-net.o)
 .rodata.node_add
                0x000000000000e8d6       0x19 contiki-exp5438.a(atom-net.o)
 .rodata.atom_net_link_update
                0x000000000000e8ef       0x63 contiki-exp5438.a(atom-net.o)
 .rodata.atom_net_get_node_ipaddr
                0x000000000000e952       0x3a contiki-exp5438.a(atom-net.o)
 .rodata.in     0x000000000000e98c       0x88 contiki-exp5438.a(atom-sb-usdn.o)
 .rodata.usdn_receive
                0x000000000000ea14       0x1d contiki-exp5438.a(atom-sb-usdn.o)
 .rodata.out    0x000000000000ea31       0x43 contiki-exp5438.a(atom-sb-usdn.o)
 .rodata.in     0x000000000000ea74       0x93 contiki-exp5438.a(atom-sb-rpl.o)
 .rodata.out    0x000000000000eb07       0x1d contiki-exp5438.a(atom-sb-rpl.o)
 .rodata.depth_first_search
                0x000000000000eb24       0x66 contiki-exp5438.a(atom-app-route-)
 .rodata.run    0x000000000000eb8a       0x46 contiki-exp5438.a(atom-app-route-)
 .rodata        0x000000000000ebd0        0xb contiki-exp5438.a(atom-app-route-)
 .rodata        0x000000000000ebdb        0xc contiki-exp5438.a(atom-app-route-)
 .rodata.run    0x000000000000ebe7       0x45 contiki-exp5438.a(atom-app-join-c)
 .rodata.handle_cfg_timer
                0x000000000000ec2c       0x2c contiki-exp5438.a(atom-app-join-c)
 .rodata        0x000000000000ec58       0x15 contiki-exp5438.a(atom-app-join-c)
 *fill*         0x000000000000ec6d        0x3 00
 .rodata.get_value
                0x000000000000ec70       0x44 contiki-exp5438.a(cc2420.o)
 .rodata.set_value
                0x000000000000ecb4       0x20 contiki-exp5438.a(cc2420.o)
 .rodata.cc2420_driver
                0x000000000000ecd4       0x38 contiki-exp5438.a(cc2420.o)
                0x000000000000ecd4                cc2420_driver
 .rodata        0x000000000000ed0c        0xe contiki-exp5438.a(cc2420.o)
 .rodata.output_power
                0x000000000000ed1a       0x10 contiki-exp5438.a(cc2420.o)
 .rodata        0x000000000000ed2a       0x14 contiki-exp5438.a(duty-cycle-scro)
 .rodata.sdn_get_action_data_srh
                0x000000000000ed3e       0x4a contiki-exp5438.a(sdn.o)
 .rodata.process_thread_usdn_adapter_process
                0x000000000000ed88       0x56 contiki-exp5438.a(usdn-adapter.o)
 .rodata.register_controller
                0x000000000000edde       0x7c contiki-exp5438.a(usdn-adapter.o)
 .rodata.get_conn
                0x000000000000ee5a       0x1d contiki-exp5438.a(usdn-adapter.o)
 .rodata.send   0x000000000000ee77       0x22 contiki-exp5438.a(usdn-adapter.o)
 *fill*         0x000000000000ee99        0x1 00
 .rodata.usdn_adapter
                0x000000000000ee9a        0xc contiki-exp5438.a(usdn-adapter.o)
                0x000000000000ee9a                usdn_adapter
 .rodata        0x000000000000eea6       0x16 contiki-exp5438.a(usdn-adapter.o)
 .rodata.sdn_fwd
                0x000000000000eebc       0x53 contiki-exp5438.a(usdn-driver.o)
 *fill*         0x000000000000ef0f        0x1 00
 .rodata.action_handler
                0x000000000000ef10       0x38 contiki-exp5438.a(usdn-driver.o)
 .rodata.sdn_query
                0x000000000000ef48       0x18 contiki-exp5438.a(usdn-driver.o)
 .rodata.process
                0x000000000000ef60       0x70 contiki-exp5438.a(usdn-driver.o)
 .rodata.usdn_driver
                0x000000000000efd0       0x2c contiki-exp5438.a(usdn-driver.o)
                0x000000000000efd0                usdn_driver
 .rodata.send.constprop.8
                0x000000000000effc       0x7c contiki-exp5438.a(usdn-engine.o)
 .rodata.handle_join_timer
                0x000000000000f078       0x27 contiki-exp5438.a(usdn-engine.o)
 .rodata.controller_join
                0x000000000000f09f       0x37 contiki-exp5438.a(usdn-engine.o)
 .rodata.handle_update_timer
                0x000000000000f0d6       0x1e contiki-exp5438.a(usdn-engine.o)
 .rodata.controller_update
                0x000000000000f0f4       0x57 contiki-exp5438.a(usdn-engine.o)
 .rodata.in     0x000000000000f14b       0x3b contiki-exp5438.a(usdn-engine.o)
 .rodata.controller_query
                0x000000000000f186       0x14 contiki-exp5438.a(usdn-engine.o)
 .rodata.usdn_engine
                0x000000000000f19a       0x14 contiki-exp5438.a(usdn-engine.o)
                0x000000000000f19a                usdn_engine
 .rodata        0x000000000000f1ae        0xc contiki-exp5438.a(etimer.o)
 .rodata.log_6addr
                0x000000000000f1ba       0x28 contiki-exp5438.a(log-ng.o)
 .rodata        0x000000000000f1e2        0xf contiki-exp5438.a(ctimer.o)
 .rodata.upper_layer_chksum
                0x000000000000f1f1       0x27 contiki-exp5438.a(uip6.o)
 .rodata.ext_hdr_options_process
                0x000000000000f218       0x74 contiki-exp5438.a(uip6.o)
 .rodata.remove_ext_hdr
                0x000000000000f28c       0x6c contiki-exp5438.a(uip6.o)
 .rodata.uip_process
                0x000000000000f2f8      0x39a contiki-exp5438.a(uip6.o)
 .rodata        0x000000000000f692        0xb contiki-exp5438.a(sicslowpan.o)
 *fill*         0x000000000000f69d        0x1 00
 .rodata.sicslowpan_driver
                0x000000000000f69e        0xa contiki-exp5438.a(sicslowpan.o)
                0x000000000000f69e                sicslowpan_driver
 .rodata.llprefix
                0x000000000000f6a8        0x2 contiki-exp5438.a(sicslowpan.o)
                0x000000000000f6a8                llprefix
 .rodata.unc_mxconf
                0x000000000000f6aa        0x4 contiki-exp5438.a(sicslowpan.o)
                0x000000000000f6aa                unc_mxconf
 .rodata.unc_ctxconf
                0x000000000000f6ae        0x4 contiki-exp5438.a(sicslowpan.o)
                0x000000000000f6ae                unc_ctxconf
 .rodata.unc_llconf
                0x000000000000f6b2        0x4 contiki-exp5438.a(sicslowpan.o)
                0x000000000000f6b2                unc_llconf
 .rodata.ttl_values
                0x000000000000f6b6        0x4 contiki-exp5438.a(sicslowpan.o)
 .rodata.uip_debug_ipaddr_print
                0x000000000000f6ba       0x28 contiki-exp5438.a(uip-debug.o)
 .rodata        0x000000000000f6e2        0xd contiki-exp5438.a(tcpip.o)
 .rodata        0x000000000000f6ef       0x13 contiki-exp5438.a(simple-udp.o)
 .rodata.rpl_join_instance
                0x000000000000f702       0x1e contiki-exp5438.a(rpl-dag.o)
 .rodata.linkaddr_null
                0x000000000000f720        0x8 contiki-exp5438.a(linkaddr.o)
                0x000000000000f720                linkaddr_null
 .rodata.framer_802154
                0x000000000000f728        0xc contiki-exp5438.a(framer-802154.o)
                0x000000000000f728                framer_802154
 .rodata        0x000000000000f734        0x5 contiki-exp5438.a(csma.o)
 *fill*         0x000000000000f739        0x1 00
 .rodata.csma_driver
                0x000000000000f73a       0x1a contiki-exp5438.a(csma.o)
                0x000000000000f73a                csma_driver
 .rodata.CSWTCH.16
                0x000000000000f754        0x2 contiki-exp5438.a(frame802154.o)
 .rodata        0x000000000000f756        0x8 contiki-exp5438.a(nullrdc.o)
 .rodata.nullrdc_driver
                0x000000000000f75e       0x1e contiki-exp5438.a(nullrdc.o)
                0x000000000000f75e                nullrdc_driver
 .rodata        0x000000000000f77c        0x8 contiki-exp5438.a(nullsec.o)
 .rodata.nullsec_driver
                0x000000000000f784        0xe contiki-exp5438.a(nullsec.o)
                0x000000000000f784                nullsec_driver
 .rodata.data_alloc
                0x000000000000f792       0x33 contiki-exp5438.a(sdn-ft.o)
 .rodata.data_free
                0x000000000000f7c5       0x22 contiki-exp5438.a(sdn-ft.o)
 *fill*         0x000000000000f7e7        0x1 00
 .rodata.sdn_ft_do_match
                0x000000000000f7e8       0x18 contiki-exp5438.a(sdn-ft.o)
 .rodata.sdn_ft_check_default
                0x000000000000f800       0x15 contiki-exp5438.a(sdn-ft.o)
 .rodata.entry_timedout
                0x000000000000f815       0xe1 contiki-exp5438.a(sdn-ft.o)
 .rodata.sdn_ft_create_match
                0x000000000000f8f6       0x25 contiki-exp5438.a(sdn-ft.o)
 .rodata.sdn_ft_create_action
                0x000000000000f91b       0x27 contiki-exp5438.a(sdn-ft.o)
 .rodata.sdn_ft_register_action_handler
                0x000000000000f942       0x18 contiki-exp5438.a(sdn-ft.o)
 *fill*         0x000000000000f95a        0x2 00
 .rodata.print_sdn_ft_match
                0x000000000000f95c       0x74 contiki-exp5438.a(sdn-ft.o)
 .rodata.print_sdn_ft_action
                0x000000000000f9d0       0x64 contiki-exp5438.a(sdn-ft.o)
 .rodata.sdn_ft_add_entry
                0x000000000000fa34       0x26 contiki-exp5438.a(sdn-ft.o)
 .rodata.sdn_ft_create_entry
                0x000000000000fa5a       0x26 contiki-exp5438.a(sdn-ft.o)
 .rodata.sdn_ft_check_list
                0x000000000000fa80       0x10 contiki-exp5438.a(sdn-ft.o)
 .rodata.sdn_cd_add
                0x000000000000fa90       0x7a contiki-exp5438.a(sdn-cd.o)
 *fill*         0x000000000000fb0a        0x2 00
 .rodata.sdn_cd_set_state
                0x000000000000fb0c       0x60 contiki-exp5438.a(sdn-cd.o)
 .rodata.sdn_cd_init_default_controller
                0x000000000000fb6c       0x1f contiki-exp5438.a(sdn-cd.o)
 .rodata.sdn_ext_insert_srh
                0x000000000000fb8b       0x5f contiki-exp5438.a(sdn-ext-header.)
 .rodata.sdn_pbuf_allocate
                0x000000000000fbea       0x34 contiki-exp5438.a(sdn-packetbuf.o)
 .rodata.sdn_pbuf_free
                0x000000000000fc1e       0x30 contiki-exp5438.a(sdn-packetbuf.o)
 .rodata.dao_input
                0x000000000000fc4e       0x24 contiki-exp5438.a(rpl-icmp6.o)
 .rodata        0x000000000000fc72        0x8 /home/mkulkarni/opt/compiler/mspgcc-4.7.3/bin/../lib/gcc/msp430/4.7.3/mcpu-430x/mmpy-16/msr20/mc20/libgcc.a(_thenan_sf.o)
                0x000000000000fc72                __thenan_sf
 .rodata        0x000000000000fc7a      0x100 /home/mkulkarni/opt/compiler/mspgcc-4.7.3/bin/../lib/gcc/msp430/4.7.3/mcpu-430x/mmpy-16/msr20/mc20/libgcc.a(_clz.o)
                0x000000000000fc7a                __clz_tab
 .rodata.vuprintf
                0x000000000000fd7a        0x7 /home/mkulkarni/opt/compiler/mspgcc-4.7.3/bin/../lib/gcc/msp430/4.7.3/../../../../msp430/lib/mcpu-430x/mmpy-16/msr20/mc20/libc.a(vuprintf.o)
 *(.near.rodata .near.rodata.*)
                0x000000000000fd82                . = ALIGN (0x2)
                0x000000000000fd82                _etext = .

.data           0x0000000000001c00      0x1fc load address 0x000000000000fd82
                0x0000000000001c00                . = ALIGN (0x2)
                0x0000000000001c00                __data_start = .
 *(.data .data.* .gnu.linkonce.d.*)
 .data.sdn_controller_process
                0x0000000000001c00        0xc sdn-controller.co
                0x0000000000001c00                sdn_controller_process
 .data.sdn_stats_process
                0x0000000000001c0c        0xc obj_exp5438/sdn-stats.o
                0x0000000000001c0c                sdn_stats_process
 .data.controller_process
                0x0000000000001c18        0xc contiki-exp5438.a(atom.o)
                0x0000000000001c18                controller_process
 .data.all_sb   0x0000000000001c24        0x4 contiki-exp5438.a(atom.o)
                0x0000000000001c24                all_sb
 .data.all_apps
                0x0000000000001c28        0x4 contiki-exp5438.a(atom.o)
                0x0000000000001c28                all_apps
 .data.atom_msg_memb
                0x0000000000001c2c        0x8 contiki-exp5438.a(atom-buffer.o)
 .data.nodes_memb
                0x0000000000001c34        0x8 contiki-exp5438.a(atom-net.o)
 .data.sb_usdn  0x0000000000001c3c       0x20 contiki-exp5438.a(atom-sb-usdn.o)
                0x0000000000001c3c                sb_usdn
 .data.sb_rpl   0x0000000000001c5c       0x20 contiki-exp5438.a(atom-sb-rpl.o)
                0x0000000000001c5c                sb_rpl
 .data.app_route_sp
                0x0000000000001c7c        0xc contiki-exp5438.a(atom-app-route-)
                0x0000000000001c7c                app_route_sp
 .data.spath_length
                0x0000000000001c88        0x2 contiki-exp5438.a(atom-app-route-)
 .data.top      0x0000000000001c8a        0x2 contiki-exp5438.a(atom-app-route-)
 .data.app_route_rpl
                0x0000000000001c8c        0xc contiki-exp5438.a(atom-app-route-)
                0x0000000000001c8c                app_route_rpl
 .data.app_join_cfg
                0x0000000000001c98        0xc contiki-exp5438.a(atom-app-join-c)
                0x0000000000001c98                app_join_cfg
 .data.cur_break
                0x0000000000001ca4        0x2 contiki-exp5438.a(msp430.o)
 .data.cc2420_process
                0x0000000000001ca6        0xc contiki-exp5438.a(cc2420.o)
                0x0000000000001ca6                cc2420_process
 .data.send_on_cca
                0x0000000000001cb2        0x1 contiki-exp5438.a(cc2420.o)
 *fill*         0x0000000000001cb3        0x1 00
 .data.duty_cycle_scroller_process
                0x0000000000001cb4        0xc contiki-exp5438.a(duty-cycle-scro)
                0x0000000000001cb4                duty_cycle_scroller_process
 .data.usdn_adapter_process
                0x0000000000001cc0        0xc contiki-exp5438.a(usdn-adapter.o)
                0x0000000000001cc0                usdn_adapter_process
 .data.conn_memb
                0x0000000000001ccc        0x8 contiki-exp5438.a(usdn-adapter.o)
 .data.sdn_pbuf_memb
                0x0000000000001cd4        0x8 contiki-exp5438.a(usdn-driver.o)
 .data.etimer_process
                0x0000000000001cdc        0xc contiki-exp5438.a(etimer.o)
                0x0000000000001cdc                etimer_process
 .data.curr_log_level_atom
                0x0000000000001ce8        0x2 contiki-exp5438.a(log-ng.o)
                0x0000000000001ce8                curr_log_level_atom
 .data.curr_log_level_sdn
                0x0000000000001cea        0x2 contiki-exp5438.a(log-ng.o)
                0x0000000000001cea                curr_log_level_sdn
 .data.ctimer_process
                0x0000000000001cec        0xc contiki-exp5438.a(ctimer.o)
                0x0000000000001cec                ctimer_process
 .data.defaultroutermemb
                0x0000000000001cf8        0x8 contiki-exp5438.a(uip-ds6-route.o)
 .data.ds6_neighbors
                0x0000000000001d00        0x2 contiki-exp5438.a(uip-ds6-nbr.o)
                0x0000000000001d00                ds6_neighbors
 .data.ds6_neighbors_struct
                0x0000000000001d02        0xa contiki-exp5438.a(uip-ds6-nbr.o)
 .data.ns_input_handler
                0x0000000000001d0c        0x8 contiki-exp5438.a(uip-nd6.o)
 .data.tcpip_process
                0x0000000000001d14        0xc contiki-exp5438.a(tcpip.o)
                0x0000000000001d14                tcpip_process
 .data.simple_udp_process
                0x0000000000001d20        0xc contiki-exp5438.a(simple-udp.o)
                0x0000000000001d20                simple_udp_process
 .data.nodememb
                0x0000000000001d2c        0x8 contiki-exp5438.a(rpl-ns.o)
 .data.rpl_parents
                0x0000000000001d34        0x2 contiki-exp5438.a(rpl-dag.o)
                0x0000000000001d34                rpl_parents
 .data.rpl_parents_struct
                0x0000000000001d36        0xa contiki-exp5438.a(rpl-dag.o)
 .data.buframmem
                0x0000000000001d40        0x8 contiki-exp5438.a(queuebuf.o)
 .data.bufmem   0x0000000000001d48        0x8 contiki-exp5438.a(queuebuf.o)
 .data.neighbor_addr_mem
                0x0000000000001d50        0x8 contiki-exp5438.a(nbr-table.o)
 .data.link_stats_struct
                0x0000000000001d58        0xa contiki-exp5438.a(link-stats.o)
 .data.neighbor_memb
                0x0000000000001d62        0x8 contiki-exp5438.a(csma.o)
 .data.packet_memb
                0x0000000000001d6a        0x8 contiki-exp5438.a(csma.o)
 .data.metadata_memb
                0x0000000000001d72        0x8 contiki-exp5438.a(csma.o)
 .data.mac_pan_id
                0x0000000000001d7a        0x2 contiki-exp5438.a(frame802154.o)
 .data.entries_memb
                0x0000000000001d7c        0x8 contiki-exp5438.a(sdn-ft.o)
 .data.matches_memb
                0x0000000000001d84        0x8 contiki-exp5438.a(sdn-ft.o)
 .data.actions_memb
                0x0000000000001d8c        0x8 contiki-exp5438.a(sdn-ft.o)
 .data.data_memb
                0x0000000000001d94        0x8 contiki-exp5438.a(sdn-ft.o)
 .data.controller_memb
                0x0000000000001d9c        0x8 contiki-exp5438.a(sdn-cd.o)
 .data.echo_request_handler
                0x0000000000001da4        0x8 contiki-exp5438.a(uip-icmp6.o)
 .data.echo_reply_handler
                0x0000000000001dac        0x8 contiki-exp5438.a(uip-icmp6.o)
 .data.dao_sequence
                0x0000000000001db4        0x1 contiki-exp5438.a(rpl-icmp6.o)
 *fill*         0x0000000000001db5        0x1 00
 .data.dis_handler
                0x0000000000001db6        0x8 contiki-exp5438.a(rpl-icmp6.o)
 .data.dio_handler
                0x0000000000001dbe        0x8 contiki-exp5438.a(rpl-icmp6.o)
 .data.dao_handler
                0x0000000000001dc6        0x8 contiki-exp5438.a(rpl-icmp6.o)
 .data.dao_ack_handler
                0x0000000000001dce        0x8 contiki-exp5438.a(rpl-icmp6.o)
 .data.rpl_mrhof
                0x0000000000001dd6       0x22 contiki-exp5438.a(rpl-mrhof.o)
                0x0000000000001dd6                rpl_mrhof
 .data.next     0x0000000000001df8        0x4 /home/mkulkarni/opt/compiler/mspgcc-4.7.3/bin/../lib/gcc/msp430/4.7.3/../../../../msp430/lib/mcpu-430x/mmpy-16/msr20/mc20/libc.a(rand.o)
 *(.near.data .near.data.*)
                0x0000000000001dfc                . = ALIGN (0x2)
                0x0000000000001dfc                _edata = .
                0x000000000000fd82                __data_load_start = LOADADDR (.data)
                0x00000000000001fc                __data_size = SIZEOF (.data)

.bss            0x0000000000001dfc     0x390c load address 0x000000000000ff7e
                0x0000000000001dfc                __bss_start = .
 *(.bss .bss.*)
 .bss.ipaddr.5629
                0x0000000000001dfc       0x10 sdn-controller.co
 .bss.udp_conn  0x0000000000001e0c       0x1e sdn-controller.co
 .bss.periodic.4246
                0x0000000000001e2a        0xc obj_exp5438/sdn-stats.o
 .bss.last_cpu.4219
                0x0000000000001e36        0x4 obj_exp5438/sdn-stats.o
 .bss.last_lpm.4220
                0x0000000000001e3a        0x4 obj_exp5438/sdn-stats.o
 .bss.last_transmit.4221
                0x0000000000001e3e        0x4 obj_exp5438/sdn-stats.o
 .bss.last_listen.4222
                0x0000000000001e42        0x4 obj_exp5438/sdn-stats.o
 .bss.irq_energest.4616
                0x0000000000001e46        0x4 obj_exp5438/contiki-exp5438-main.o
 .bss.queue     0x0000000000001e4a        0x6 contiki-exp5438.a(atom-buffer.o)
 .bss.action_buf
                0x0000000000001e50      0x113 contiki-exp5438.a(atom-buffer.o)
 *fill*         0x0000000000001f63        0x1 00
 .bss.response_buf
                0x0000000000001f64       0x7a contiki-exp5438.a(atom-buffer.o)
 .bss.atom_msg_list_list
                0x0000000000001fde        0x2 contiki-exp5438.a(atom-buffer.o)
 .bss.msg_id    0x0000000000001fe0        0x2 contiki-exp5438.a(atom-buffer.o)
 .bss.ar_id     0x0000000000001fe2        0x2 contiki-exp5438.a(atom-buffer.o)
 .bss.atom_msg_memb_memb_count
                0x0000000000001fe4        0x3 contiki-exp5438.a(atom-buffer.o)
 *fill*         0x0000000000001fe7        0x1 00
 .bss.atom_msg_memb_memb_mem
                0x0000000000001fe8      0x2ee contiki-exp5438.a(atom-buffer.o)
 .bss.nodes_list
                0x00000000000022d6        0x2 contiki-exp5438.a(atom-net.o)
 .bss.nodes_memb_memb_count
                0x00000000000022d8       0x2a contiki-exp5438.a(atom-net.o)
 .bss.nodes_memb_memb_mem
                0x0000000000002302     0x1014 contiki-exp5438.a(atom-net.o)
 .bss.output_buf
                0x0000000000003316       0x50 contiki-exp5438.a(atom-sb-usdn.o)
 .bss.udp       0x0000000000003366       0x1e contiki-exp5438.a(atom-sb-usdn.o)
 .bss.spath     0x0000000000003384       0x54 contiki-exp5438.a(atom-app-route-)
 .bss.stack     0x00000000000033d8       0x54 contiki-exp5438.a(atom-app-route-)
 .bss.dco_speed
                0x000000000000342c        0x4 contiki-exp5438.a(msp430.o)
 .bss.leds      0x0000000000003430        0x1 contiki-exp5438.a(leds.o)
 *fill*         0x0000000000003431        0x1 00
 .bss.counter   0x0000000000003432        0x2 contiki-exp5438.a(watchdog.o)
 .bss.poll_mode
                0x0000000000003434        0x1 contiki-exp5438.a(cc2420.o)
 *fill*         0x0000000000003435        0x1 00
 .bss.last_packet_timestamp
                0x0000000000003436        0x2 contiki-exp5438.a(cc2420.o)
 .bss.locked    0x0000000000003438        0x1 contiki-exp5438.a(cc2420.o)
 .bss.lock_on   0x0000000000003439        0x1 contiki-exp5438.a(cc2420.o)
 .bss.lock_off  0x000000000000343a        0x1 contiki-exp5438.a(cc2420.o)
 .bss.receive_on
                0x000000000000343b        0x1 contiki-exp5438.a(cc2420.o)
 .bss.channel   0x000000000000343c        0x2 contiki-exp5438.a(cc2420.o)
 .bss.node_id   0x000000000000343e        0x2 contiki-exp5438.a(node-id.o)
                0x000000000000343e                node_id
 .bss.transmitting
                0x0000000000003440        0x1 contiki-exp5438.a(uart1x.o)
 *fill*         0x0000000000003441        0x1 00
 .bss.uart1_input_handler
                0x0000000000003442        0x4 contiki-exp5438.a(uart1x.o)
 .bss.interval  0x0000000000003446        0x4 contiki-exp5438.a(duty-cycle-scro)
 .bss.interval_timer.2529
                0x000000000000344a        0xc contiki-exp5438.a(duty-cycle-scro)
 .bss.last_cpu.2531
                0x0000000000003456        0x4 contiki-exp5438.a(duty-cycle-scro)
 .bss.last_lpm.2532
                0x000000000000345a        0x4 contiki-exp5438.a(duty-cycle-scro)
 .bss.last_transmit.2533
                0x000000000000345e        0x4 contiki-exp5438.a(duty-cycle-scro)
 .bss.last_listen.2534
                0x0000000000003462        0x4 contiki-exp5438.a(duty-cycle-scro)
 .bss.count     0x0000000000003466        0x4 contiki-exp5438.a(clock.o)
 .bss.seconds   0x000000000000346a        0x4 contiki-exp5438.a(clock.o)
 .bss.last_tar  0x000000000000346e        0x2 contiki-exp5438.a(clock.o)
 .bss.connlist_list
                0x0000000000003470        0x2 contiki-exp5438.a(usdn-adapter.o)
 .bss.databuffer
                0x0000000000003472       0xf0 contiki-exp5438.a(usdn-adapter.o)
 .bss.conn_memb_len
                0x0000000000003562        0x1 contiki-exp5438.a(usdn-adapter.o)
 .bss.conn_memb_memb_count
                0x0000000000003563        0x2 contiki-exp5438.a(usdn-adapter.o)
 *fill*         0x0000000000003565        0x1 00
 .bss.conn_memb_memb_mem
                0x0000000000003566       0x14 contiki-exp5438.a(usdn-adapter.o)
 .bss.sdn_pbuf_list_list
                0x000000000000357a        0x2 contiki-exp5438.a(usdn-driver.o)
 .bss.sdn_pbuf_memb_memb_count
                0x000000000000357c        0x1 contiki-exp5438.a(usdn-driver.o)
 *fill*         0x000000000000357d        0x1 00
 .bss.sdn_pbuf_memb_memb_mem
                0x000000000000357e      0x112 contiki-exp5438.a(usdn-driver.o)
 .bss.ftq_count
                0x0000000000003690        0x2 contiki-exp5438.a(usdn-engine.o)
 .bss.databuf   0x0000000000003692       0x3c contiki-exp5438.a(usdn-engine.o)
 .bss.nsu_count
                0x00000000000036ce        0x2 contiki-exp5438.a(usdn-engine.o)
 .bss.join_timer
                0x00000000000036d0       0x16 contiki-exp5438.a(usdn-engine.o)
 .bss.cjoin_count
                0x00000000000036e6        0x2 contiki-exp5438.a(usdn-engine.o)
 .bss.timerlist
                0x00000000000036e8        0x2 contiki-exp5438.a(etimer.o)
 .bss.next_expiration
                0x00000000000036ea        0x4 contiki-exp5438.a(etimer.o)
 .bss.initialized
                0x00000000000036ee        0x1 contiki-exp5438.a(ctimer.o)
 *fill*         0x00000000000036ef        0x1 00
 .bss.ctimer_list_list
                0x00000000000036f0        0x2 contiki-exp5438.a(ctimer.o)
 .bss.poll_requested
                0x00000000000036f2        0x1 contiki-exp5438.a(process.o)
 *fill*         0x00000000000036f3        0x1 00
 .bss.process_current
                0x00000000000036f4        0x2 contiki-exp5438.a(process.o)
                0x00000000000036f4                process_current
 .bss.process_list
                0x00000000000036f6        0x2 contiki-exp5438.a(process.o)
                0x00000000000036f6                process_list
 .bss.lastevent
                0x00000000000036f8        0x1 contiki-exp5438.a(process.o)
 .bss.fevent    0x00000000000036f9        0x1 contiki-exp5438.a(process.o)
 .bss.nevents   0x00000000000036fa        0x1 contiki-exp5438.a(process.o)
 *fill*         0x00000000000036fb        0x1 00
 .bss.events    0x00000000000036fc       0x30 contiki-exp5438.a(process.o)
 .bss.next_rtimer
                0x000000000000372c        0x2 contiki-exp5438.a(rtimer.o)
 .bss.loc_fipaddr
                0x000000000000372e       0x10 contiki-exp5438.a(uip-ds6.o)
 .bss.locaddr   0x000000000000373e        0x2 contiki-exp5438.a(uip-ds6.o)
 .bss.locprefix
                0x0000000000003740        0x2 contiki-exp5438.a(uip-ds6.o)
 .bss.locmaddr  0x0000000000003742        0x2 contiki-exp5438.a(uip-ds6.o)
 .bss.defaultrouterlist_list
                0x0000000000003744        0x2 contiki-exp5438.a(uip-ds6-route.o)
 .bss.defaultroutermemb_memb_count
                0x0000000000003746        0x1 contiki-exp5438.a(uip-ds6-route.o)
 *fill*         0x0000000000003747        0x1 00
 .bss.defaultroutermemb_memb_mem
                0x0000000000003748       0x1c contiki-exp5438.a(uip-ds6-route.o)
 .bss.uip_ext_opt_offset
                0x0000000000003764        0x1 contiki-exp5438.a(uip6.o)
                0x0000000000003764                uip_ext_opt_offset
 .bss.uip_ext_len
                0x0000000000003765        0x1 contiki-exp5438.a(uip6.o)
                0x0000000000003765                uip_ext_len
 .bss.uip_ext_bitmap
                0x0000000000003766        0x1 contiki-exp5438.a(uip6.o)
                0x0000000000003766                uip_ext_bitmap
 *fill*         0x0000000000003767        0x1 00
 .bss.lastport  0x0000000000003768        0x2 contiki-exp5438.a(uip6.o)
 .bss._ds6_neighbors_mem
                0x000000000000376a       0x90 contiki-exp5438.a(uip-ds6-nbr.o)
 .bss.nd6_opt_llao
                0x00000000000037fa        0x2 contiki-exp5438.a(uip-nd6.o)
 .bss.nd6_opt_offset
                0x00000000000037fc        0x1 contiki-exp5438.a(uip-nd6.o)
 *fill*         0x00000000000037fd        0x1 00
 .bss.nbr       0x00000000000037fe        0x2 contiki-exp5438.a(uip-nd6.o)
 .bss.addr      0x0000000000003800        0x2 contiki-exp5438.a(uip-nd6.o)
 .bss.callback  0x0000000000003802        0x2 contiki-exp5438.a(sicslowpan.o)
 .bss.addr_contexts
                0x0000000000003804       0x14 contiki-exp5438.a(sicslowpan.o)
 .bss.uncomp_hdr_len
                0x0000000000003818        0x1 contiki-exp5438.a(sicslowpan.o)
 .bss.packetbuf_hdr_len
                0x0000000000003819        0x1 contiki-exp5438.a(sicslowpan.o)
 .bss.packetbuf_ptr
                0x000000000000381a        0x2 contiki-exp5438.a(sicslowpan.o)
 .bss.hc06_ptr  0x000000000000381c        0x2 contiki-exp5438.a(sicslowpan.o)
 .bss.context   0x000000000000381e        0x2 contiki-exp5438.a(sicslowpan.o)
 .bss.last_tx_status
                0x0000000000003820        0x2 contiki-exp5438.a(sicslowpan.o)
 .bss.last_rssi
                0x0000000000003822        0x2 contiki-exp5438.a(sicslowpan.o)
 .bss.packetbuf_payload_len
                0x0000000000003824        0x2 contiki-exp5438.a(sicslowpan.o)
 .bss.outputfunc
                0x0000000000003826        0x4 contiki-exp5438.a(tcpip.o)
 .bss.periodic  0x000000000000382a        0xc contiki-exp5438.a(tcpip.o)
 .bss.databuffer
                0x0000000000003836       0xf0 contiki-exp5438.a(simple-udp.o)
 .bss.started   0x0000000000003926        0x1 contiki-exp5438.a(simple-udp.o)
 *fill*         0x0000000000003927        0x1 00
 .bss.mode      0x0000000000003928        0x2 contiki-exp5438.a(rpl.o)
 .bss.num_nodes
                0x000000000000392a        0x2 contiki-exp5438.a(rpl-ns.o)
 .bss.nodelist_list
                0x000000000000392c        0x2 contiki-exp5438.a(rpl-ns.o)
 .bss.nodememb_memb_count
                0x000000000000392e       0x32 contiki-exp5438.a(rpl-ns.o)
 .bss.nodememb_memb_mem
                0x0000000000003960      0x384 contiki-exp5438.a(rpl-ns.o)
 .bss._rpl_parents_mem
                0x0000000000003ce4       0x30 contiki-exp5438.a(rpl-dag.o)
 .bss.buframmem_memb_count
                0x0000000000003d14        0x8 contiki-exp5438.a(queuebuf.o)
 .bss.buframmem_memb_mem
                0x0000000000003d1c      0x580 contiki-exp5438.a(queuebuf.o)
 .bss.bufmem_memb_count
                0x000000000000429c        0x8 contiki-exp5438.a(queuebuf.o)
 .bss.bufmem_memb_mem
                0x00000000000042a4       0x10 contiki-exp5438.a(queuebuf.o)
 .bss.num_tables
                0x00000000000042b4        0x2 contiki-exp5438.a(nbr-table.o)
 .bss.all_tables
                0x00000000000042b6       0x10 contiki-exp5438.a(nbr-table.o)
 .bss.used_map  0x00000000000042c6        0x8 contiki-exp5438.a(nbr-table.o)
 .bss.nbr_table_keys_list
                0x00000000000042ce        0x2 contiki-exp5438.a(nbr-table.o)
 .bss.locked_map
                0x00000000000042d0        0x8 contiki-exp5438.a(nbr-table.o)
 .bss.neighbor_addr_mem_memb_count
                0x00000000000042d8        0x8 contiki-exp5438.a(nbr-table.o)
 .bss.neighbor_addr_mem_memb_mem
                0x00000000000042e0       0x50 contiki-exp5438.a(nbr-table.o)
 .bss.bufptr    0x0000000000004330        0x2 contiki-exp5438.a(packetbuf.o)
 .bss.buflen    0x0000000000004332        0x2 contiki-exp5438.a(packetbuf.o)
 .bss.hdrlen    0x0000000000004334        0x1 contiki-exp5438.a(packetbuf.o)
 *fill*         0x0000000000004335        0x1 00
 .bss.packetbuf_aligned
                0x0000000000004336       0x80 contiki-exp5438.a(packetbuf.o)
 .bss._link_stats_mem
                0x00000000000043b6       0x50 contiki-exp5438.a(link-stats.o)
 .bss.initialized
                0x0000000000004406        0x1 contiki-exp5438.a(framer-802154.o)
 .bss.mac_dsn   0x0000000000004407        0x1 contiki-exp5438.a(framer-802154.o)
 .bss.initialized.3361
                0x0000000000004408        0x1 contiki-exp5438.a(csma.o)
 *fill*         0x0000000000004409        0x1 00
 .bss.seqno.3362
                0x000000000000440a        0x2 contiki-exp5438.a(csma.o)
 .bss.neighbor_list_list
                0x000000000000440c        0x2 contiki-exp5438.a(csma.o)
 .bss.neighbor_memb_memb_count
                0x000000000000440e        0x2 contiki-exp5438.a(csma.o)
 .bss.neighbor_memb_memb_mem
                0x0000000000004410       0x4c contiki-exp5438.a(csma.o)
 .bss.packet_memb_memb_count
                0x000000000000445c        0x8 contiki-exp5438.a(csma.o)
 .bss.packet_memb_memb_mem
                0x0000000000004464       0x30 contiki-exp5438.a(csma.o)
 .bss.metadata_memb_memb_count
                0x0000000000004494        0x8 contiki-exp5438.a(csma.o)
 .bss.metadata_memb_memb_mem
                0x000000000000449c       0x40 contiki-exp5438.a(csma.o)
 .bss.flowtable_list
                0x00000000000044dc        0x2 contiki-exp5438.a(sdn-ft.o)
 .bss.default_match
                0x00000000000044de        0x2 contiki-exp5438.a(sdn-ft.o)
 .bss.default_action
                0x00000000000044e0        0x2 contiki-exp5438.a(sdn-ft.o)
 .bss.current_id
                0x00000000000044e2        0x2 contiki-exp5438.a(sdn-ft.o)
 .bss.whitelist_list
                0x00000000000044e4        0x2 contiki-exp5438.a(sdn-ft.o)
 .bss.a_memb_len
                0x00000000000044e6        0x1 contiki-exp5438.a(sdn-ft.o)
 .bss.m_memb_len
                0x00000000000044e7        0x1 contiki-exp5438.a(sdn-ft.o)
 .bss.e_memb_len
                0x00000000000044e8        0x1 contiki-exp5438.a(sdn-ft.o)
 .bss.entries_memb_memb_count
                0x00000000000044e9        0xa contiki-exp5438.a(sdn-ft.o)
 *fill*         0x00000000000044f3        0x1 00
 .bss.entries_memb_memb_mem
                0x00000000000044f4      0x154 contiki-exp5438.a(sdn-ft.o)
 .bss.matches_memb_memb_count
                0x0000000000004648        0xa contiki-exp5438.a(sdn-ft.o)
 .bss.matches_memb_memb_mem
                0x0000000000004652       0x3c contiki-exp5438.a(sdn-ft.o)
 .bss.actions_memb_memb_count
                0x000000000000468e        0xa contiki-exp5438.a(sdn-ft.o)
 .bss.actions_memb_memb_mem
                0x0000000000004698       0x32 contiki-exp5438.a(sdn-ft.o)
 .bss.data_memb_memb_count
                0x00000000000046ca      0x400 contiki-exp5438.a(sdn-ft.o)
 .bss.data_memb_memb_mem
                0x0000000000004aca      0x400 contiki-exp5438.a(sdn-ft.o)
 .bss.controllerlist_list
                0x0000000000004eca        0x2 contiki-exp5438.a(sdn-cd.o)
 .bss.controller_memb_memb_count
                0x0000000000004ecc        0x1 contiki-exp5438.a(sdn-cd.o)
 *fill*         0x0000000000004ecd        0x1 00
 .bss.controller_memb_memb_mem
                0x0000000000004ece       0x3a contiki-exp5438.a(sdn-cd.o)
 .bss.current_id
                0x0000000000004f08        0x2 contiki-exp5438.a(sdn-packetbuf.o)
 .bss.input_handler_list_list
                0x0000000000004f0a        0x2 contiki-exp5438.a(uip-icmp6.o)
 .bss.tmp_ipaddr
                0x0000000000004f0c       0x10 contiki-exp5438.a(uip-icmp6.o)
 .bss.echo_reply_callback_list_list
                0x0000000000004f1c        0x2 contiki-exp5438.a(uip-icmp6.o)
 .bss.rpl_sdn_dao_received
                0x0000000000004f1e       0x32 contiki-exp5438.a(rpl-sdn.o)
                0x0000000000004f1e                rpl_sdn_dao_received
 .bss.next_dis  0x0000000000004f50        0x2 contiki-exp5438.a(rpl-timers.o)
 .bss.periodic_timer
                0x0000000000004f52       0x16 contiki-exp5438.a(rpl-timers.o)
 .bss.dio_send_ok
                0x0000000000004f68        0x1 contiki-exp5438.a(rpl-timers.o)
 *fill*         0x0000000000004f69        0x1 00
 .bss.num_children
                0x0000000000004f6a        0x2 contiki-exp5438.a(rpl-nbr-policy.)
 .bss.worst_rank_nbr
                0x0000000000004f6c        0x2 contiki-exp5438.a(rpl-nbr-policy.)
 .bss.timer_init
                0x0000000000004f6e        0x2 contiki-exp5438.a(rpl-nbr-policy.)
 .bss.periodic_timer
                0x0000000000004f70       0x16 contiki-exp5438.a(rpl-nbr-policy.)
 .bss.worst_rank
                0x0000000000004f86        0x2 contiki-exp5438.a(rpl-nbr-policy.)
 .bss.num_parents
                0x0000000000004f88        0x2 contiki-exp5438.a(rpl-nbr-policy.)
 .bss.num_free  0x0000000000004f8a        0x2 contiki-exp5438.a(rpl-nbr-policy.)
 .bss.received_seqnos
                0x0000000000004f8c       0xe0 contiki-exp5438.a(mac-sequence.o)
 *(.near.bss .near.bss.*)
 *(COMMON)
 COMMON         0x000000000000506c        0x4 sdn-controller.co
                0x000000000000506c                ft_action_handler
 COMMON         0x0000000000005070       0x10 contiki-exp5438.a(atom.o)
                0x0000000000005070                controller_addr
 COMMON         0x0000000000005080       0xf6 contiki-exp5438.a(atom-buffer.o)
                0x0000000000005080                c_slen
                0x0000000000005082                c_len
                0x0000000000005084                c_hops
                0x0000000000005085                c_ext_len
                0x0000000000005086                c_alligned_buf
 COMMON         0x0000000000005176       0x10 contiki-exp5438.a(cc2420.o)
                0x0000000000005176                cc2420_last_rssi
                0x0000000000005178                cc2420_sfd_start_time
                0x000000000000517a                cc2420_time_of_departure
                0x000000000000517c                cc2420_time_of_arrival
                0x000000000000517e                cc2420_last_correlation
                0x0000000000005180                cc2420_authority_level_of_sender
                0x0000000000005182                cc2420_sfd_counter
                0x0000000000005184                cc2420_sfd_end_time
 COMMON         0x0000000000005186        0x8 contiki-exp5438.a(node-id.o)
                0x0000000000005186                node_mac
 COMMON         0x000000000000518e        0xe contiki-exp5438.a(sdn-conf.o)
                0x000000000000518e                SDN_CONF
 COMMON         0x000000000000519c       0x1e contiki-exp5438.a(sdn.o)
                0x000000000000519c                sdn_stats
 COMMON         0x00000000000051ba       0x56 contiki-exp5438.a(energest.o)
                0x00000000000051ba                energest_total_time
                0x00000000000051ea                energest_total_count
                0x00000000000051ec                energest_current_mode
                0x00000000000051f8                energest_current_time
 COMMON         0x0000000000005210        0x1 contiki-exp5438.a(process.o)
                0x0000000000005210                process_maxevents
 *fill*         0x0000000000005211        0x1 00
 COMMON         0x0000000000005212      0x15c contiki-exp5438.a(uip-ds6.o)
                0x0000000000005212                uip_ds6_timer_ra
                0x000000000000521a                uip_ds6_if
                0x0000000000005306                uip_ds6_netif_addr_list_offset
                0x0000000000005307                uip_ds6_addr_size
                0x0000000000005308                uip_ds6_prefix_list
                0x0000000000005362                uip_ds6_timer_periodic
 COMMON         0x000000000000536e      0x240 contiki-exp5438.a(uip6.o)
                0x000000000000536e                uip_len
                0x0000000000005370                uip_sappdata
                0x0000000000005372                uip_lladdr
                0x000000000000537a                uip_aligned_buf
                0x000000000000546a                uip_flags
                0x000000000000546c                uip_next_hdr
                0x000000000000546e                uip_udp_conn
                0x0000000000005470                uip_appdata
                0x0000000000005472                uip_conn
                0x0000000000005474                uip_slen
                0x0000000000005476                uip_udp_conns
 COMMON         0x00000000000055ae        0x1 contiki-exp5438.a(tcpip.o)
                0x00000000000055ae                tcpip_event
 *fill*         0x00000000000055af        0x1 00
 COMMON         0x00000000000055b0      0x10a contiki-exp5438.a(rpl-dag.o)
                0x00000000000055b0                default_instance
                0x00000000000055b2                instance_table
 COMMON         0x00000000000056ba       0x2e contiki-exp5438.a(packetbuf.o)
                0x00000000000056ba                packetbuf_addrs
                0x00000000000056ca                packetbuf_attrs
 COMMON         0x00000000000056e8        0x8 contiki-exp5438.a(linkaddr.o)
                0x00000000000056e8                linkaddr_node_addr
 COMMON         0x00000000000056f0       0x16 contiki-exp5438.a(link-stats.o)
                0x00000000000056f0                periodic_timer
 COMMON         0x0000000000005706        0x2 contiki-exp5438.a(sdn-cd.o)
                0x0000000000005706                DEFAULT_CONTROLLER
                0x0000000000005708                . = ALIGN (0x2)
                0x0000000000005708                __bss_end = .
                0x000000000000390c                __bss_size = SIZEOF (.bss)

.noinit         0x0000000000005708        0x2 load address 0x000000000000ff7e
                0x0000000000005708                . = ALIGN (0x2)
                0x0000000000005708                __noinit_start = .
 *(.noinit .noinit.*)
 .noinit.crt0   0x0000000000005708        0x2 /home/mkulkarni/opt/compiler/mspgcc-4.7.3/bin/../lib/gcc/msp430/4.7.3/mcpu-430x/mmpy-16/msr20/mc20/libcrt0.a(__watchdog_support.o)
                0x0000000000005708                __wdt_clear_value
                0x000000000000570a                . = ALIGN (0x2)
                0x000000000000570a                __noinit_end = .
                0x000000000000570a                . = ALIGN (0x2)
                0x000000000000570a                _end = .

.infomem        0x0000000000001800        0x0
                0x0000000000001800                . = ALIGN (0x2)
 *(.infomem .infomem.*)

.infomemnobits  0x0000000000001800        0x0
                0x0000000000001800                . = ALIGN (0x2)
 *(.infomemnobits .infomemnobits.*)

.infoa          0x0000000000001980        0x0
                0x0000000000001980                . = ALIGN (0x2)
 *(.infoa .infoa.*)

.infob          0x0000000000001900        0x0
                0x0000000000001900                . = ALIGN (0x2)
 *(.infob .infob.*)

.infoc          0x0000000000001880        0x0
                0x0000000000001880                . = ALIGN (0x2)
 *(.infoc .infoc.*)

.infod          0x0000000000001800        0x0
                0x0000000000001800                . = ALIGN (0x2)
 *(.infod .infod.*)
                0x000000000000ffff                PROVIDE (__vte_0, 0xffff)
                0x000000000000ffff                PROVIDE (__vte_1, 0xffff)
                0x000000000000ffff                PROVIDE (__vte_2, 0xffff)
                0x000000000000ffff                PROVIDE (__vte_3, 0xffff)
                0x000000000000ffff                PROVIDE (__vte_4, 0xffff)
                0x000000000000ffff                PROVIDE (__vte_5, 0xffff)
                0x000000000000ffff                PROVIDE (__vte_6, 0xffff)
                0x000000000000ffff                PROVIDE (__vte_7, 0xffff)
                0x000000000000ffff                PROVIDE (__vte_8, 0xffff)
                0x000000000000ffff                PROVIDE (__vte_9, 0xffff)
                0x000000000000ffff                PROVIDE (__vte_10, 0xffff)
                0x000000000000ffff                PROVIDE (__vte_11, 0xffff)
                0x000000000000ffff                PROVIDE (__vte_12, 0xffff)
                0x000000000000ffff                PROVIDE (__vte_13, 0xffff)
                0x000000000000ffff                PROVIDE (__vte_14, 0xffff)
                0x000000000000ffff                PROVIDE (__vte_15, 0xffff)
                0x000000000000ffff                PROVIDE (__vte_16, 0xffff)
                0x000000000000ffff                PROVIDE (__vte_17, 0xffff)
                0x000000000000ffff                PROVIDE (__vte_18, 0xffff)
                0x000000000000ffff                PROVIDE (__vte_19, 0xffff)
                0x000000000000ffff                PROVIDE (__vte_20, 0xffff)
                0x000000000000ffff                PROVIDE (__vte_21, 0xffff)
                0x000000000000ffff                PROVIDE (__vte_22, 0xffff)
                0x000000000000ffff                PROVIDE (__vte_23, 0xffff)
                0x000000000000ffff                PROVIDE (__vte_24, 0xffff)
                0x000000000000ffff                PROVIDE (__vte_25, 0xffff)
                0x000000000000ffff                PROVIDE (__vte_26, 0xffff)
                0x000000000000ffff                PROVIDE (__vte_27, 0xffff)
                0x000000000000ffff                PROVIDE (__vte_28, 0xffff)
                0x000000000000ffff                PROVIDE (__vte_29, 0xffff)
                0x000000000000ffff                PROVIDE (__vte_30, 0xffff)
                0x000000000000ffff                PROVIDE (__vte_31, 0xffff)

.vectors        0x000000000000ff80       0x80
                0x000000000000ff80                __vectors_start = .
 *(.vectors*)
 .vectors       0x000000000000ff80       0x80 /home/mkulkarni/opt/compiler/mspgcc-4.7.3/bin/../lib/gcc/msp430/4.7.3/mcpu-430x/mmpy-16/msr20/mc20/crt0ivtbl64.o
                0x000000000000ff80                __ivtbl_64
                0x0000000000010000                _vectors_end = .

.fartext        0x0000000000010000        0x0
                0x0000000000010000                . = ALIGN (0x2)
 *(.fartext .fartext.*)

.far.text       0x0000000000010000     0x5148
                0x0000000000010000                . = ALIGN (0x2)
 *(.far.text .far.text.*)
 .any.text.rpl_process_dio
                0x0000000000010000      0x32c contiki-exp5438.a(rpl-dag.o)
                0x0000000000010000                rpl_process_dio
 .any.text.index_from_lladdr
                0x000000000001032c       0x3e contiki-exp5438.a(nbr-table.o)
 .any.text.nbr_get_bit.constprop.0
                0x000000000001036a       0x2c contiki-exp5438.a(nbr-table.o)
 .any.text.remove_key
                0x0000000000010396       0x56 contiki-exp5438.a(nbr-table.o)
 .any.text.nbr_table_register
                0x00000000000103ec       0x26 contiki-exp5438.a(nbr-table.o)
                0x00000000000103ec                nbr_table_register
 .any.text.nbr_table_next
                0x0000000000010412       0x3a contiki-exp5438.a(nbr-table.o)
                0x0000000000010412                nbr_table_next
 .any.text.nbr_table_head
                0x000000000001044c       0x36 contiki-exp5438.a(nbr-table.o)
                0x000000000001044c                nbr_table_head
 .any.text.nbr_table_add_lladdr
                0x0000000000010482       0xfc contiki-exp5438.a(nbr-table.o)
                0x0000000000010482                nbr_table_add_lladdr
 .any.text.nbr_table_get_from_lladdr
                0x000000000001057e       0x28 contiki-exp5438.a(nbr-table.o)
                0x000000000001057e                nbr_table_get_from_lladdr
 .any.text.nbr_table_remove
                0x00000000000105a6       0x2a contiki-exp5438.a(nbr-table.o)
                0x00000000000105a6                nbr_table_remove
 .any.text.nbr_table_lock
                0x00000000000105d0       0x10 contiki-exp5438.a(nbr-table.o)
                0x00000000000105d0                nbr_table_lock
 .any.text.nbr_table_unlock
                0x00000000000105e0       0x10 contiki-exp5438.a(nbr-table.o)
                0x00000000000105e0                nbr_table_unlock
 .any.text.nbr_table_get_lladdr
                0x00000000000105f0       0x14 contiki-exp5438.a(nbr-table.o)
                0x00000000000105f0                nbr_table_get_lladdr
 .any.text.nbr_table_update_lladdr
                0x0000000000010604       0x48 contiki-exp5438.a(nbr-table.o)
                0x0000000000010604                nbr_table_update_lladdr
 .any.text.packetbuf_hdrreduce
                0x000000000001064c       0x1a contiki-exp5438.a(packetbuf.o)
                0x000000000001064c                packetbuf_hdrreduce
 .any.text.packetbuf_set_datalen
                0x0000000000010666        0x6 contiki-exp5438.a(packetbuf.o)
                0x0000000000010666                packetbuf_set_datalen
 .any.text.packetbuf_hdrptr
                0x000000000001066c        0x6 contiki-exp5438.a(packetbuf.o)
                0x000000000001066c                packetbuf_hdrptr
 .any.text.packetbuf_datalen
                0x0000000000010672        0x6 contiki-exp5438.a(packetbuf.o)
                0x0000000000010672                packetbuf_datalen
 .any.text.packetbuf_hdrlen
                0x0000000000010678        0xa contiki-exp5438.a(packetbuf.o)
                0x0000000000010678                packetbuf_hdrlen
 .any.text.packetbuf_dataptr
                0x0000000000010682        0xc contiki-exp5438.a(packetbuf.o)
                0x0000000000010682                packetbuf_dataptr
 .any.text.packetbuf_copyto
                0x000000000001068e       0x44 contiki-exp5438.a(packetbuf.o)
                0x000000000001068e                packetbuf_copyto
 .any.text.packetbuf_totlen
                0x00000000000106d2        0xc contiki-exp5438.a(packetbuf.o)
                0x00000000000106d2                packetbuf_totlen
 .any.text.packetbuf_hdralloc
                0x00000000000106de       0x3c contiki-exp5438.a(packetbuf.o)
                0x00000000000106de                packetbuf_hdralloc
 .any.text.packetbuf_attr_clear
                0x000000000001071a       0x28 contiki-exp5438.a(packetbuf.o)
                0x000000000001071a                packetbuf_attr_clear
 .any.text.packetbuf_clear
                0x0000000000010742       0x12 contiki-exp5438.a(packetbuf.o)
                0x0000000000010742                packetbuf_clear
 .any.text.packetbuf_copyfrom
                0x0000000000010754       0x2a contiki-exp5438.a(packetbuf.o)
                0x0000000000010754                packetbuf_copyfrom
 .any.text.packetbuf_attr_copyto
                0x000000000001077e       0x22 contiki-exp5438.a(packetbuf.o)
                0x000000000001077e                packetbuf_attr_copyto
 .any.text.packetbuf_attr_copyfrom
                0x00000000000107a0       0x24 contiki-exp5438.a(packetbuf.o)
                0x00000000000107a0                packetbuf_attr_copyfrom
 .any.text.packetbuf_holds_broadcast
                0x00000000000107c4        0xe contiki-exp5438.a(packetbuf.o)
                0x00000000000107c4                packetbuf_holds_broadcast
 .any.text.linkaddr_copy
                0x00000000000107d2        0x8 contiki-exp5438.a(linkaddr.o)
                0x00000000000107d2                linkaddr_copy
 .any.text.linkaddr_cmp
                0x00000000000107da       0x12 contiki-exp5438.a(linkaddr.o)
                0x00000000000107da                linkaddr_cmp
 .any.text.linkaddr_set_node_addr
                0x00000000000107ec        0xc contiki-exp5438.a(linkaddr.o)
                0x00000000000107ec                linkaddr_set_node_addr
 .any.text.periodic
                0x00000000000107f8       0x2c contiki-exp5438.a(link-stats.o)
 .any.text.link_stats_from_lladdr
                0x0000000000010824        0xc contiki-exp5438.a(link-stats.o)
                0x0000000000010824                link_stats_from_lladdr
 .any.text.link_stats_is_fresh
                0x0000000000010830       0x32 contiki-exp5438.a(link-stats.o)
                0x0000000000010830                link_stats_is_fresh
 .any.text.link_stats_packet_sent
                0x0000000000010862       0xde contiki-exp5438.a(link-stats.o)
                0x0000000000010862                link_stats_packet_sent
 .any.text.link_stats_input_callback
                0x0000000000010940       0x84 contiki-exp5438.a(link-stats.o)
                0x0000000000010940                link_stats_input_callback
 .any.text.link_stats_init
                0x00000000000109c4       0x22 contiki-exp5438.a(link-stats.o)
                0x00000000000109c4                link_stats_init
 .any.text.create_frame.isra.0
                0x00000000000109e6      0x114 contiki-exp5438.a(framer-802154.o)
 .any.text.create
                0x0000000000010afa        0x8 contiki-exp5438.a(framer-802154.o)
 .any.text.hdr_length
                0x0000000000010b02        0x8 contiki-exp5438.a(framer-802154.o)
 .any.text.parse
                0x0000000000010b0a       0x9a contiki-exp5438.a(framer-802154.o)
 .any.text.input_packet
                0x0000000000010ba4        0x6 contiki-exp5438.a(csma.o)
 .any.text.on   0x0000000000010baa        0x6 contiki-exp5438.a(csma.o)
 .any.text.off  0x0000000000010bb0        0x6 contiki-exp5438.a(csma.o)
 .any.text.channel_check_interval
                0x0000000000010bb6       0x10 contiki-exp5438.a(csma.o)
 .any.text.transmit_packet_list
                0x0000000000010bc6       0x24 contiki-exp5438.a(csma.o)
 .any.text.schedule_transmission
                0x0000000000010bea       0x94 contiki-exp5438.a(csma.o)
 .any.text.init
                0x0000000000010c7e       0x1a contiki-exp5438.a(csma.o)
 .any.text.tx_done
                0x0000000000010c98       0x86 contiki-exp5438.a(csma.o)
 .any.text.send_packet
                0x0000000000010d1e      0x158 contiki-exp5438.a(csma.o)
 .any.text.packet_sent
                0x0000000000010e76       0xca contiki-exp5438.a(csma.o)
 .any.text.frame802154_get_pan_id
                0x0000000000010f40        0x6 contiki-exp5438.a(frame802154.o)
                0x0000000000010f40                frame802154_get_pan_id
 .any.text.frame802154_has_panid
                0x0000000000010f46       0xe0 contiki-exp5438.a(frame802154.o)
                0x0000000000010f46                frame802154_has_panid
 .any.text.field_len
                0x0000000000011026       0xa8 contiki-exp5438.a(frame802154.o)
 .any.text.frame802154_is_broadcast_addr
                0x00000000000110ce       0x28 contiki-exp5438.a(frame802154.o)
                0x00000000000110ce                frame802154_is_broadcast_addr
 .any.text.frame802154_hdrlen
                0x00000000000110f6       0x32 contiki-exp5438.a(frame802154.o)
                0x00000000000110f6                frame802154_hdrlen
 .any.text.frame802154_create_fcf
                0x0000000000011128       0x6e contiki-exp5438.a(frame802154.o)
                0x0000000000011128                frame802154_create_fcf
 .any.text.frame802154_create
                0x0000000000011196       0xd4 contiki-exp5438.a(frame802154.o)
                0x0000000000011196                frame802154_create
 .any.text.frame802154_parse_fcf
                0x000000000001126a       0x8c contiki-exp5438.a(frame802154.o)
                0x000000000001126a                frame802154_parse_fcf
 .any.text.frame802154_parse
                0x00000000000112f6      0x15c contiki-exp5438.a(frame802154.o)
                0x00000000000112f6                frame802154_parse
 .any.text.mac_call_sent_callback
                0x0000000000011452       0x14 contiki-exp5438.a(mac.o)
                0x0000000000011452                mac_call_sent_callback
 .any.text.on   0x0000000000011466        0x6 contiki-exp5438.a(nullrdc.o)
 .any.text.channel_check_interval
                0x000000000001146c        0x4 contiki-exp5438.a(nullrdc.o)
 .any.text.init
                0x0000000000011470        0x6 contiki-exp5438.a(nullrdc.o)
 .any.text.off  0x0000000000011476       0x10 contiki-exp5438.a(nullrdc.o)
 .any.text.packet_input
                0x0000000000011486       0x40 contiki-exp5438.a(nullrdc.o)
 .any.text.send_one_packet
                0x00000000000114c6      0x114 contiki-exp5438.a(nullrdc.o)
 .any.text.send_list
                0x00000000000115da       0x28 contiki-exp5438.a(nullrdc.o)
 .any.text.send_packet
                0x0000000000011602        0x6 contiki-exp5438.a(nullrdc.o)
 .any.text.send
                0x0000000000011608       0x12 contiki-exp5438.a(nullsec.o)
 .any.text.input
                0x000000000001161a        0x6 contiki-exp5438.a(nullsec.o)
 .any.text.spi_init
                0x0000000000011620       0x32 contiki-exp5438.a(spix.o)
                0x0000000000011620                spi_init
 .any.text.data_alloc
                0x0000000000011652       0x4a contiki-exp5438.a(sdn-ft.o)
 .any.text.match_cmp
                0x000000000001169c       0x4a contiki-exp5438.a(sdn-ft.o)
 .any.text.action_cmp
                0x00000000000116e6       0x4a contiki-exp5438.a(sdn-ft.o)
 .any.text.entry_cmp
                0x0000000000011730       0x34 contiki-exp5438.a(sdn-ft.o)
 .any.text.data_free
                0x0000000000011764       0x50 contiki-exp5438.a(sdn-ft.o)
 .any.text.sdn_ft_do_match
                0x00000000000117b4       0x7c contiki-exp5438.a(sdn-ft.o)
                0x00000000000117b4                sdn_ft_do_match
 .any.text.sdn_ft_check_default
                0x0000000000011830       0x64 contiki-exp5438.a(sdn-ft.o)
                0x0000000000011830                sdn_ft_check_default
 .any.text.sdn_ft_init
                0x0000000000011894       0x32 contiki-exp5438.a(sdn-ft.o)
                0x0000000000011894                sdn_ft_init
 .any.text.sdn_ft_rm_entry
                0x00000000000118c6       0x5a contiki-exp5438.a(sdn-ft.o)
                0x00000000000118c6                sdn_ft_rm_entry
 .any.text.entry_timedout
                0x0000000000011920      0x180 contiki-exp5438.a(sdn-ft.o)
 .any.text.sdn_ft_create_match
                0x0000000000011aa0       0x82 contiki-exp5438.a(sdn-ft.o)
                0x0000000000011aa0                sdn_ft_create_match
 .any.text.sdn_ft_create_action
                0x0000000000011b22       0x84 contiki-exp5438.a(sdn-ft.o)
                0x0000000000011b22                sdn_ft_create_action
 .any.text.sdn_ft_register_action_handler
                0x0000000000011ba6       0x2e contiki-exp5438.a(sdn-ft.o)
                0x0000000000011ba6                sdn_ft_register_action_handler
 .any.text.print_sdn_ft_match
                0x0000000000011bd4       0xc0 contiki-exp5438.a(sdn-ft.o)
                0x0000000000011bd4                print_sdn_ft_match
 .any.text.print_sdn_ft_action
                0x0000000000011c94       0xc4 contiki-exp5438.a(sdn-ft.o)
                0x0000000000011c94                print_sdn_ft_action
 .any.text.print_sdn_ft_entry
                0x0000000000011d58       0x18 contiki-exp5438.a(sdn-ft.o)
                0x0000000000011d58                print_sdn_ft_entry
 .any.text.sdn_ft_add_entry
                0x0000000000011d70       0x78 contiki-exp5438.a(sdn-ft.o)
                0x0000000000011d70                sdn_ft_add_entry
 .any.text.sdn_ft_create_entry
                0x0000000000011de8       0xcc contiki-exp5438.a(sdn-ft.o)
                0x0000000000011de8                sdn_ft_create_entry
 .any.text.sdn_ft_check_list
                0x0000000000011eb4       0x74 contiki-exp5438.a(sdn-ft.o)
                0x0000000000011eb4                sdn_ft_check_list
 .any.text.sdn_ft_check
                0x0000000000011f28       0x1e contiki-exp5438.a(sdn-ft.o)
                0x0000000000011f28                sdn_ft_check
 .any.text.sdn_cd_add
                0x0000000000011f46       0xe0 contiki-exp5438.a(sdn-cd.o)
                0x0000000000011f46                sdn_cd_add
 .any.text.sdn_cd_set_state
                0x0000000000012026       0xaa contiki-exp5438.a(sdn-cd.o)
                0x0000000000012026                sdn_cd_set_state
 .any.text.sdn_cd_init_default_controller
                0x00000000000120d0       0x9c contiki-exp5438.a(sdn-cd.o)
                0x00000000000120d0                sdn_cd_init_default_controller
 .any.text.sdn_cd_init
                0x000000000001216c       0x16 contiki-exp5438.a(sdn-cd.o)
                0x000000000001216c                sdn_cd_init
 .any.text.sdn_ext_insert_srh
                0x0000000000012182      0x1bc contiki-exp5438.a(sdn-ext-header.)
                0x0000000000012182                sdn_ext_insert_srh
 .any.text.sdn_pbuf_allocate
                0x000000000001233e       0x88 contiki-exp5438.a(sdn-packetbuf.o)
                0x000000000001233e                sdn_pbuf_allocate
 .any.text.sdn_pbuf_free
                0x00000000000123c6       0x54 contiki-exp5438.a(sdn-packetbuf.o)
                0x00000000000123c6                sdn_pbuf_free
 .any.text.packet_timedout
                0x000000000001241a        0x6 contiki-exp5438.a(sdn-packetbuf.o)
 .any.text.sdn_pbuf_buf
                0x0000000000012420        0xe contiki-exp5438.a(sdn-packetbuf.o)
                0x0000000000012420                sdn_pbuf_buf
 .any.text.sdn_pbuf_buflen
                0x000000000001242e        0xe contiki-exp5438.a(sdn-packetbuf.o)
                0x000000000001242e                sdn_pbuf_buflen
 .any.text.sdn_pbuf_extlen
                0x000000000001243c        0xe contiki-exp5438.a(sdn-packetbuf.o)
                0x000000000001243c                sdn_pbuf_extlen
 .any.text.sdn_pbuf_set
                0x000000000001244a       0x20 contiki-exp5438.a(sdn-packetbuf.o)
                0x000000000001244a                sdn_pbuf_set
 .any.text.stimer_set
                0x000000000001246a       0x1c contiki-exp5438.a(stimer.o)
                0x000000000001246a                stimer_set
 .any.text.stimer_expired
                0x0000000000012486       0x30 contiki-exp5438.a(stimer.o)
                0x0000000000012486                stimer_expired
 .any.text.echo_reply_input
                0x00000000000124b6       0xaa contiki-exp5438.a(uip-icmp6.o)
 .any.text.echo_request_input
                0x0000000000012560       0xca contiki-exp5438.a(uip-icmp6.o)
 .any.text.uip_icmp6_input
                0x000000000001262a       0x44 contiki-exp5438.a(uip-icmp6.o)
                0x000000000001262a                uip_icmp6_input
 .any.text.uip_icmp6_register_input_handler
                0x000000000001266e        0xc contiki-exp5438.a(uip-icmp6.o)
                0x000000000001266e                uip_icmp6_register_input_handler
 .any.text.uip_icmp6_error_output
                0x000000000001267a      0x16e contiki-exp5438.a(uip-icmp6.o)
                0x000000000001267a                uip_icmp6_error_output
 .any.text.uip_icmp6_send
                0x00000000000127e8       0x84 contiki-exp5438.a(uip-icmp6.o)
                0x00000000000127e8                uip_icmp6_send
 .any.text.uip_icmp6_init
                0x000000000001286c       0x12 contiki-exp5438.a(uip-icmp6.o)
                0x000000000001286c                uip_icmp6_init
 .any.text.get32
                0x000000000001287e       0x3e contiki-exp5438.a(rpl-icmp6.o)
 .any.text.set32
                0x00000000000128bc       0x2a contiki-exp5438.a(rpl-icmp6.o)
 .any.text.get16
                0x00000000000128e6        0xe contiki-exp5438.a(rpl-icmp6.o)
 .any.text.set16
                0x00000000000128f4       0x10 contiki-exp5438.a(rpl-icmp6.o)
 .any.text.dao_ack_input
                0x0000000000012904        0xa contiki-exp5438.a(rpl-icmp6.o)
 .any.text.dao_input
                0x000000000001290e      0x18a contiki-exp5438.a(rpl-icmp6.o)
 .any.text.dio_input
                0x0000000000012a98      0x280 contiki-exp5438.a(rpl-icmp6.o)
 .any.text.rpl_icmp6_update_nbr_table
                0x0000000000012d18       0x28 contiki-exp5438.a(rpl-icmp6.o)
                0x0000000000012d18                rpl_icmp6_update_nbr_table
 .any.text.dis_output
                0x0000000000012d40       0x50 contiki-exp5438.a(rpl-icmp6.o)
                0x0000000000012d40                dis_output
 .any.text.dio_output
                0x0000000000012d90      0x24c contiki-exp5438.a(rpl-icmp6.o)
                0x0000000000012d90                dio_output
 .any.text.dis_input
                0x0000000000012fdc       0x3e contiki-exp5438.a(rpl-icmp6.o)
 .any.text.dao_output_target
                0x000000000001301a       0xf6 contiki-exp5438.a(rpl-icmp6.o)
                0x000000000001301a                dao_output_target
 .any.text.dao_output
                0x0000000000013110       0x9e contiki-exp5438.a(rpl-icmp6.o)
                0x0000000000013110                dao_output
 .any.text.rpl_icmp6_register_handlers
                0x00000000000131ae       0x22 contiki-exp5438.a(rpl-icmp6.o)
                0x00000000000131ae                rpl_icmp6_register_handlers
 .any.text.handle_unicast_dio_timer
                0x00000000000131d0       0x1c contiki-exp5438.a(rpl-timers.o)
 .any.text.new_dio_interval
                0x00000000000131ec       0x9e contiki-exp5438.a(rpl-timers.o)
 .any.text.set_dao_lifetime_timer
                0x000000000001328a       0x7e contiki-exp5438.a(rpl-timers.o)
 .any.text.handle_periodic_timer
                0x0000000000013308       0x50 contiki-exp5438.a(rpl-timers.o)
 .any.text.schedule_dao
                0x0000000000013358       0x72 contiki-exp5438.a(rpl-timers.o)
 .any.text.handle_dio_timer
                0x00000000000133ca       0x88 contiki-exp5438.a(rpl-timers.o)
 .any.text.handle_dao_timer
                0x0000000000013452       0x64 contiki-exp5438.a(rpl-timers.o)
 .any.text.rpl_reset_periodic_timer
                0x00000000000134b6       0x46 contiki-exp5438.a(rpl-timers.o)
                0x00000000000134b6                rpl_reset_periodic_timer
 .any.text.rpl_reset_dio_timer
                0x00000000000134fc       0x18 contiki-exp5438.a(rpl-timers.o)
                0x00000000000134fc                rpl_reset_dio_timer
 .any.text.rpl_schedule_dao
                0x0000000000013514        0xc contiki-exp5438.a(rpl-timers.o)
                0x0000000000013514                rpl_schedule_dao
 .any.text.rpl_schedule_unicast_dio_immediately
                0x0000000000013520       0x16 contiki-exp5438.a(rpl-timers.o)
                0x0000000000013520                rpl_schedule_unicast_dio_immediately
 .any.text.get_probing_delay
                0x0000000000013536       0x88 contiki-exp5438.a(rpl-timers.o)
                0x0000000000013536                get_probing_delay
 .any.text.get_probing_target
                0x00000000000135be       0xe2 contiki-exp5438.a(rpl-timers.o)
                0x00000000000135be                get_probing_target
 .any.text.rpl_schedule_probing
                0x00000000000136a0       0x26 contiki-exp5438.a(rpl-timers.o)
                0x00000000000136a0                rpl_schedule_probing
 .any.text.handle_probing_timer
                0x00000000000136c6       0x34 contiki-exp5438.a(rpl-timers.o)
 .any.text.update_nbr
                0x00000000000136fa       0xd8 contiki-exp5438.a(rpl-nbr-policy.)
 .any.text.handle_periodic_timer
                0x00000000000137d2        0xe contiki-exp5438.a(rpl-nbr-policy.)
 .any.text.find_removable_dis
                0x00000000000137e0       0x16 contiki-exp5438.a(rpl-nbr-policy.)
                0x00000000000137e0                find_removable_dis
 .any.text.find_removable_dio
                0x00000000000137f6       0x3c contiki-exp5438.a(rpl-nbr-policy.)
                0x00000000000137f6                find_removable_dio
 .any.text.find_removable_dao
                0x0000000000013832       0x32 contiki-exp5438.a(rpl-nbr-policy.)
                0x0000000000013832                find_removable_dao
 .any.text.rpl_nbr_policy_find_removable
                0x0000000000013864       0x30 contiki-exp5438.a(rpl-nbr-policy.)
                0x0000000000013864                rpl_nbr_policy_find_removable
 .any.text.reset
                0x0000000000013894        0x2 contiki-exp5438.a(rpl-mrhof.o)
 .any.text.update_metric_container
                0x0000000000013896        0x6 contiki-exp5438.a(rpl-mrhof.o)
 .any.text.parent_link_metric
                0x000000000001389c       0x10 contiki-exp5438.a(rpl-mrhof.o)
 .any.text.parent_has_usable_link
                0x00000000000138ac       0x14 contiki-exp5438.a(rpl-mrhof.o)
 .any.text.best_dag
                0x00000000000138c0       0x2e contiki-exp5438.a(rpl-mrhof.o)
 .any.text.parent_path_cost
                0x00000000000138ee       0x40 contiki-exp5438.a(rpl-mrhof.o)
 .any.text.parent_is_acceptable
                0x000000000001392e       0x2a contiki-exp5438.a(rpl-mrhof.o)
 .any.text.rank_via_parent
                0x0000000000013958       0x4e contiki-exp5438.a(rpl-mrhof.o)
 .any.text.best_parent
                0x00000000000139a6       0x76 contiki-exp5438.a(rpl-mrhof.o)
 .any.text.mac_sequence_is_duplicate
                0x0000000000013a1c       0x60 contiki-exp5438.a(mac-sequence.o)
                0x0000000000013a1c                mac_sequence_is_duplicate
 .any.text.mac_sequence_register_seqno
                0x0000000000013a7c       0x7e contiki-exp5438.a(mac-sequence.o)
                0x0000000000013a7c                mac_sequence_register_seqno
 .any.text      0x0000000000013afa       0x3c /home/mkulkarni/opt/compiler/mspgcc-4.7.3/bin/../lib/gcc/msp430/4.7.3/mcpu-430x/mmpy-16/msr20/mc20/libgcc.a(_fixunssfsi.o)
                0x0000000000013afa                __fixunssfsi
 .any.text      0x0000000000013b36      0x306 /home/mkulkarni/opt/compiler/mspgcc-4.7.3/bin/../lib/gcc/msp430/4.7.3/mcpu-430x/mmpy-16/msr20/mc20/libgcc.a(_addsub_sf.o)
                0x0000000000013da0                __addsf3
                0x0000000000013dec                __subsf3
 .any.text      0x0000000000013e3c      0x1fe /home/mkulkarni/opt/compiler/mspgcc-4.7.3/bin/../lib/gcc/msp430/4.7.3/mcpu-430x/mmpy-16/msr20/mc20/libgcc.a(_mul_sf.o)
                0x0000000000013e3c                __mulsf3
 .any.text      0x000000000001403a       0x4e /home/mkulkarni/opt/compiler/mspgcc-4.7.3/bin/../lib/gcc/msp430/4.7.3/mcpu-430x/mmpy-16/msr20/mc20/libgcc.a(_ge_sf.o)
                0x000000000001403a                __gesf2
 .any.text      0x0000000000014088       0x8c /home/mkulkarni/opt/compiler/mspgcc-4.7.3/bin/../lib/gcc/msp430/4.7.3/mcpu-430x/mmpy-16/msr20/mc20/libgcc.a(_sf_to_si.o)
                0x0000000000014088                __fixsfsi
 .any.text      0x0000000000014114       0xe4 /home/mkulkarni/opt/compiler/mspgcc-4.7.3/bin/../lib/gcc/msp430/4.7.3/mcpu-430x/mmpy-16/msr20/mc20/libgcc.a(_usi_to_sf.o)
                0x0000000000014114                __floatunsisf
 .any.text      0x00000000000141f8       0x6a /home/mkulkarni/opt/compiler/mspgcc-4.7.3/bin/../lib/gcc/msp430/4.7.3/mcpu-430x/mmpy-16/msr20/mc20/libgcc.a(_clzsi2.o)
                0x00000000000141f8                __clzsi2
 .any.text      0x0000000000014262      0x1c4 /home/mkulkarni/opt/compiler/mspgcc-4.7.3/bin/../lib/gcc/msp430/4.7.3/mcpu-430x/mmpy-16/msr20/mc20/libgcc.a(_pack_sf.o)
                0x0000000000014262                __pack_f
 .any.text      0x0000000000014426      0x10c /home/mkulkarni/opt/compiler/mspgcc-4.7.3/bin/../lib/gcc/msp430/4.7.3/mcpu-430x/mmpy-16/msr20/mc20/libgcc.a(_unpack_sf.o)
                0x0000000000014426                __unpack_f
 .any.text      0x0000000000014532       0xa4 /home/mkulkarni/opt/compiler/mspgcc-4.7.3/bin/../lib/gcc/msp430/4.7.3/mcpu-430x/mmpy-16/msr20/mc20/libgcc.a(_fpcmp_parts_sf.o)
                0x0000000000014532                __fpcmp_parts_f
 .any.text.printf
                0x00000000000145d6       0x10 /home/mkulkarni/opt/compiler/mspgcc-4.7.3/bin/../lib/gcc/msp430/4.7.3/../../../../msp430/lib/mcpu-430x/mmpy-16/msr20/mc20/libc.a(printf.o)
                0x00000000000145d6                printf
 .any.text.print_field
                0x00000000000145e6      0x176 /home/mkulkarni/opt/compiler/mspgcc-4.7.3/bin/../lib/gcc/msp430/4.7.3/../../../../msp430/lib/mcpu-430x/mmpy-16/msr20/mc20/libc.a(vuprintf.o)
 .any.text.vuprintf
                0x000000000001475c      0x742 /home/mkulkarni/opt/compiler/mspgcc-4.7.3/bin/../lib/gcc/msp430/4.7.3/../../../../msp430/lib/mcpu-430x/mmpy-16/msr20/mc20/libc.a(vuprintf.o)
                0x000000000001475c                vuprintf
 .any.text.puts
                0x0000000000014e9e       0x2c /home/mkulkarni/opt/compiler/mspgcc-4.7.3/bin/../lib/gcc/msp430/4.7.3/../../../../msp430/lib/mcpu-430x/mmpy-16/msr20/mc20/libc.a(puts.o)
                0x0000000000014e9e                puts
 .any.text.rand
                0x0000000000014eca       0x26 /home/mkulkarni/opt/compiler/mspgcc-4.7.3/bin/../lib/gcc/msp430/4.7.3/../../../../msp430/lib/mcpu-430x/mmpy-16/msr20/mc20/libc.a(rand.o)
                0x0000000000014eca                rand
 .any.text.memcmp
                0x0000000000014ef0       0x2c /home/mkulkarni/opt/compiler/mspgcc-4.7.3/bin/../lib/gcc/msp430/4.7.3/../../../../msp430/lib/mcpu-430x/mmpy-16/msr20/mc20/libc.a(memcmp.o)
                0x0000000000014ef0                memcmp
 .any.text.memcpy
                0x0000000000014f1c       0xe8 /home/mkulkarni/opt/compiler/mspgcc-4.7.3/bin/../lib/gcc/msp430/4.7.3/../../../../msp430/lib/mcpu-430x/mmpy-16/msr20/mc20/libc.a(memcpy.o)
                0x0000000000014f1c                memcpy
 .any.text.memmove
                0x0000000000015004       0xe8 /home/mkulkarni/opt/compiler/mspgcc-4.7.3/bin/../lib/gcc/msp430/4.7.3/../../../../msp430/lib/mcpu-430x/mmpy-16/msr20/mc20/libc.a(memmove.o)
                0x0000000000015004                memmove
 .any.text.memset
                0x00000000000150ec       0x5c /home/mkulkarni/opt/compiler/mspgcc-4.7.3/bin/../lib/gcc/msp430/4.7.3/../../../../msp430/lib/mcpu-430x/mmpy-16/msr20/mc20/libc.a(memset.o)
                0x00000000000150ec                memset

.far.rodata     0x0000000000015148        0x0
                0x0000000000015148                . = ALIGN (0x2)
 *(.far.rodata .far.rodata.*)
                0x0000000000015148                . = ALIGN (0x2)
                0x0000000000015148                _efartext = .

.far.data       0x0000000000000000        0x0 load address 0x0000000000015148
                0x0000000000000000                . = ALIGN (0x2)
                0x0000000000000000                __far_data_start = .
 *(.far.data .far.data.*)
                0x0000000000000000                . = ALIGN (0x2)
                0x0000000000000000                _efardata = .
                0x0000000000015148                __far_data_load_start = LOADADDR (.far.data)
                0x0000000000000000                __far_data_size = SIZEOF (.far.data)

.far.bss        0x0000000000000000        0x0 load address 0x0000000000015148
                0x0000000000000000                . = ALIGN (0x2)
                0x0000000000000000                __far_bss_start = .
 *(.far.bss .far.bss.*)
                0x0000000000000000                . = ALIGN (0x2)
                0x0000000000000000                __far_bss_end = .
                0x0000000000000000                __far_bss_size = SIZEOF (.far.bss)
                0x0000000000000000                . = ALIGN (0x2)
                0x0000000000000000                _far_end = .

.profiler
 *(.profiler)

.stab           0x0000000000000000    0x3651c
 *(.stab)
 .stab          0x0000000000000000     0x20c4 sdn-controller.co
 .stab          0x00000000000020c4      0xb28 obj_exp5438/sdn-stats.o
                                       0x1914 (size before relaxing)
 .stab          0x0000000000002bec     0x1044 obj_exp5438/contiki-exp5438-main.o
                                       0x1a10 (size before relaxing)
 .stab          0x0000000000003c30      0xc84 contiki-exp5438.a(atom.o)
                                       0x2448 (size before relaxing)
 .stab          0x00000000000048b4      0xc6c contiki-exp5438.a(atom-buffer.o)
                                       0x1c38 (size before relaxing)
 .stab          0x0000000000005520     0x1038 contiki-exp5438.a(atom-net.o)
                                       0x1ecc (size before relaxing)
 .stab          0x0000000000006558      0xf30 contiki-exp5438.a(atom-sb-usdn.o)
                                       0x270c (size before relaxing)
 .stab          0x0000000000007488      0x84c contiki-exp5438.a(atom-sb-rpl.o)
                                       0x2004 (size before relaxing)
 .stab          0x0000000000007cd4      0xa08 contiki-exp5438.a(atom-app-route-)
                                       0x1ad0 (size before relaxing)
 .stab          0x00000000000086dc      0x954 contiki-exp5438.a(atom-app-route-)
                                       0x1b9c (size before relaxing)
 .stab          0x0000000000009030      0x744 contiki-exp5438.a(atom-app-join-c)
                                       0x18cc (size before relaxing)
 .stab          0x0000000000009774      0x7f8 contiki-exp5438.a(msp430.o)
                                        0xf6c (size before relaxing)
 .stab          0x0000000000009f6c      0x5c4 contiki-exp5438.a(leds.o)
                                        0x9d8 (size before relaxing)
 .stab          0x000000000000a530      0x378 contiki-exp5438.a(watchdog.o)
                                        0x768 (size before relaxing)
 .stab          0x000000000000a8a8     0x2868 contiki-exp5438.a(cc2420.o)
                                       0x2fac (size before relaxing)
 .stab          0x000000000000d110      0x5a0 contiki-exp5438.a(cc2420-arch.o)
                                       0x1728 (size before relaxing)
 .stab          0x000000000000d6b0      0x3d8 contiki-exp5438.a(rtimer-arch.o)
                                        0x8f4 (size before relaxing)
 .stab          0x000000000000da88      0x2ac contiki-exp5438.a(node-id.o)
                                        0x69c (size before relaxing)
 .stab          0x000000000000dd34      0x2a0 contiki-exp5438.a(leds-arch.o)
                                        0x690 (size before relaxing)
 .stab          0x000000000000dfd4      0x504 contiki-exp5438.a(uart1x.o)
                                        0xa20 (size before relaxing)
 .stab          0x000000000000e4d8      0x2f4 contiki-exp5438.a(lcd.o)
                                        0x300 (size before relaxing)
 .stab          0x000000000000e7cc      0x504 contiki-exp5438.a(duty-cycle-scro)
                                        0xa20 (size before relaxing)
 .stab          0x000000000000ecd0      0x288 contiki-exp5438.a(uart1-putchar.o)
                                        0x7e0 (size before relaxing)
 .stab          0x000000000000ef58      0x8a0 contiki-exp5438.a(clock.o)
                                        0xd5c (size before relaxing)
 .stab          0x000000000000f7f8      0x474 contiki-exp5438.a(sdn-conf.o)
                                       0x1458 (size before relaxing)
 .stab          0x000000000000fc6c      0x9fc contiki-exp5438.a(sdn.o)
                                       0x1950 (size before relaxing)
 .stab          0x0000000000010668      0xa20 contiki-exp5438.a(usdn-adapter.o)
                                       0x1a70 (size before relaxing)
 .stab          0x0000000000011088     0x1350 contiki-exp5438.a(usdn-driver.o)
                                       0x2b50 (size before relaxing)
 .stab          0x00000000000123d8     0x16e0 contiki-exp5438.a(usdn-engine.o)
                                       0x2c7c (size before relaxing)
 .stab          0x0000000000013ab8      0x2ac contiki-exp5438.a(autostart.o)
                                        0x720 (size before relaxing)
 .stab          0x0000000000013d64      0x4b0 contiki-exp5438.a(energest.o)
                                        0x900 (size before relaxing)
 .stab          0x0000000000014214      0xaa4 contiki-exp5438.a(etimer.o)
                                        0xf3c (size before relaxing)
 .stab          0x0000000000014cb8      0xa8c contiki-exp5438.a(log-ng.o)
                                       0x105c (size before relaxing)
 .stab          0x0000000000015744      0x84c contiki-exp5438.a(ctimer.o)
                                        0xd8c (size before relaxing)
 .stab          0x0000000000015f90      0xb94 contiki-exp5438.a(process.o)
                                       0x1044 (size before relaxing)
 .stab          0x0000000000016b24      0x39c contiki-exp5438.a(rtimer.o)
                                        0x8a0 (size before relaxing)
 .stab          0x0000000000016ec0      0x36c contiki-exp5438.a(timer.o)
                                        0x774 (size before relaxing)
 .stab          0x000000000001722c      0x7bc contiki-exp5438.a(list.o)
                                        0x7c8 (size before relaxing)
 .stab          0x00000000000179e8      0x5c4 contiki-exp5438.a(memb.o)
                                        0xb10 (size before relaxing)
 .stab          0x0000000000017fac      0x228 contiki-exp5438.a(random.o)
                                        0x648 (size before relaxing)
 .stab          0x00000000000181d4     0x1410 contiki-exp5438.a(uip-ds6.o)
                                       0x20f4 (size before relaxing)
 .stab          0x00000000000195e4      0xabc contiki-exp5438.a(uip-ds6-route.o)
                                       0x16d4 (size before relaxing)
 .stab          0x000000000001a0a0     0x1848 contiki-exp5438.a(uip6.o)
                                       0x27cc (size before relaxing)
 .stab          0x000000000001b8e8      0xcb4 contiki-exp5438.a(uip-ds6-nbr.o)
                                       0x159c (size before relaxing)
 .stab          0x000000000001c59c      0x780 contiki-exp5438.a(uip-nd6.o)
                                       0x13ec (size before relaxing)
 .stab          0x000000000001cd1c     0x2424 contiki-exp5438.a(sicslowpan.o)
                                       0x31e0 (size before relaxing)
 .stab          0x000000000001f140      0x3d8 contiki-exp5438.a(uip-debug.o)
                                        0xbc4 (size before relaxing)
 .stab          0x000000000001f518      0x594 contiki-exp5438.a(uip-udp-packet.)
                                       0x15a8 (size before relaxing)
 .stab          0x000000000001faac      0xe28 contiki-exp5438.a(tcpip.o)
                                       0x264c (size before relaxing)
 .stab          0x00000000000208d4      0x8dc contiki-exp5438.a(simple-udp.o)
                                       0x19f8 (size before relaxing)
 .stab          0x00000000000211b0     0x11a0 contiki-exp5438.a(rpl-ext-header.)
                                       0x1fbc (size before relaxing)
 .stab          0x0000000000022350      0xb70 contiki-exp5438.a(rpl.o)
                                       0x1998 (size before relaxing)
 .stab          0x0000000000022ec0      0xc3c contiki-exp5438.a(rpl-ns.o)
                                       0x1a88 (size before relaxing)
 .stab          0x0000000000023afc     0x33fc contiki-exp5438.a(rpl-dag.o)
                                       0x420c (size before relaxing)
 .stab          0x0000000000026ef8      0xa80 contiki-exp5438.a(queuebuf.o)
                                       0x1b9c (size before relaxing)
 .stab          0x0000000000027978     0x114c contiki-exp5438.a(nbr-table.o)
                                       0x1a7c (size before relaxing)
 .stab          0x0000000000028ac4      0xc9c contiki-exp5438.a(packetbuf.o)
                                       0x1dd0 (size before relaxing)
 .stab          0x0000000000029760      0x2ac contiki-exp5438.a(linkaddr.o)
                                        0x6c0 (size before relaxing)
 .stab          0x0000000000029a0c      0x7bc contiki-exp5438.a(link-stats.o)
                                       0x11a0 (size before relaxing)
 .stab          0x000000000002a1c8      0x900 contiki-exp5438.a(framer-802154.o)
                                        0xf24 (size before relaxing)
 .stab          0x000000000002aac8      0xccc contiki-exp5438.a(csma.o)
                                       0x1674 (size before relaxing)
 .stab          0x000000000002b794     0x117c contiki-exp5438.a(frame802154.o)
                                       0x1980 (size before relaxing)
 .stab          0x000000000002c910      0x210 contiki-exp5438.a(mac.o)
                                        0x69c (size before relaxing)
 .stab          0x000000000002cb20      0x948 contiki-exp5438.a(nullrdc.o)
                                       0x12a8 (size before relaxing)
 .stab          0x000000000002d468      0x3a8 contiki-exp5438.a(nullsec.o)
                                        0xcf0 (size before relaxing)
 .stab          0x000000000002d810      0x21c contiki-exp5438.a(spix.o)
                                        0x60c (size before relaxing)
 .stab          0x000000000002da2c     0x19f8 contiki-exp5438.a(sdn-ft.o)
                                       0x2a00 (size before relaxing)
 .stab          0x000000000002f424      0x99c contiki-exp5438.a(sdn-cd.o)
                                       0x19f8 (size before relaxing)
 .stab          0x000000000002fdc0      0x66c contiki-exp5438.a(sdn-ext-header.)
                                       0x162c (size before relaxing)
 .stab          0x000000000003042c      0xc54 contiki-exp5438.a(sdn-packetbuf.o)
                                       0x1c5c (size before relaxing)
 .stab          0x0000000000031080      0x3d8 contiki-exp5438.a(stimer.o)
                                        0x7e0 (size before relaxing)
 .stab          0x0000000000031458      0xbe8 contiki-exp5438.a(uip-icmp6.o)
                                       0x1938 (size before relaxing)
 .stab          0x0000000000032040     0x1728 contiki-exp5438.a(rpl-icmp6.o)
                                       0x2a00 (size before relaxing)
 .stab          0x0000000000033768      0x45c contiki-exp5438.a(rpl-sdn.o)
                                       0x1230 (size before relaxing)
 .stab          0x0000000000033bc4      0xf84 contiki-exp5438.a(rpl-timers.o)
                                       0x1d64 (size before relaxing)
 .stab          0x0000000000034b48      0x960 contiki-exp5438.a(rpl-nbr-policy.)
                                       0x1734 (size before relaxing)
 .stab          0x00000000000354a8      0x9d8 contiki-exp5438.a(rpl-mrhof.o)
                                       0x17c4 (size before relaxing)
 .stab          0x0000000000035e80      0x69c contiki-exp5438.a(mac-sequence.o)
                                       0x17d0 (size before relaxing)

.stabstr        0x0000000000000000    0x2727e
 *(.stabstr)
 .stabstr       0x0000000000000000    0x2727e sdn-controller.co

.stab.excl
 *(.stab.excl)

.stab.exclstr
 *(.stab.exclstr)

.stab.index
 *(.stab.index)

.stab.indexstr
 *(.stab.indexstr)

.comment        0x0000000000000000       0x30
 *(.comment)
 .comment       0x0000000000000000       0x30 sdn-controller.co
                                         0x31 (size before relaxing)
 .comment       0x0000000000000000       0x31 obj_exp5438/sdn-stats.o
 .comment       0x0000000000000000       0x31 obj_exp5438/contiki-exp5438-main.o
 .comment       0x0000000000000000       0x31 contiki-exp5438.a(atom.o)
 .comment       0x0000000000000000       0x31 contiki-exp5438.a(atom-buffer.o)
 .comment       0x0000000000000000       0x31 contiki-exp5438.a(atom-net.o)
 .comment       0x0000000000000000       0x31 contiki-exp5438.a(atom-sb-usdn.o)
 .comment       0x0000000000000000       0x31 contiki-exp5438.a(atom-sb-rpl.o)
 .comment       0x0000000000000000       0x31 contiki-exp5438.a(atom-app-route-)
 .comment       0x0000000000000000       0x31 contiki-exp5438.a(atom-app-route-)
 .comment       0x0000000000000000       0x31 contiki-exp5438.a(atom-app-join-c)
 .comment       0x0000000000000000       0x31 contiki-exp5438.a(msp430.o)
 .comment       0x0000000000000000       0x31 contiki-exp5438.a(leds.o)
 .comment       0x0000000000000000       0x31 contiki-exp5438.a(watchdog.o)
 .comment       0x0000000000000000       0x31 contiki-exp5438.a(cc2420.o)
 .comment       0x0000000000000000       0x31 contiki-exp5438.a(cc2420-arch.o)
 .comment       0x0000000000000000       0x31 contiki-exp5438.a(rtimer-arch.o)
 .comment       0x0000000000000000       0x31 contiki-exp5438.a(node-id.o)
 .comment       0x0000000000000000       0x31 contiki-exp5438.a(leds-arch.o)
 .comment       0x0000000000000000       0x31 contiki-exp5438.a(uart1x.o)
 .comment       0x0000000000000000       0x31 contiki-exp5438.a(lcd.o)
 .comment       0x0000000000000000       0x31 contiki-exp5438.a(duty-cycle-scro)
 .comment       0x0000000000000000       0x31 contiki-exp5438.a(uart1-putchar.o)
 .comment       0x0000000000000000       0x31 contiki-exp5438.a(clock.o)
 .comment       0x0000000000000000       0x31 contiki-exp5438.a(sdn-conf.o)
 .comment       0x0000000000000000       0x31 contiki-exp5438.a(sdn.o)
 .comment       0x0000000000000000       0x31 contiki-exp5438.a(usdn-adapter.o)
 .comment       0x0000000000000000       0x31 contiki-exp5438.a(usdn-driver.o)
 .comment       0x0000000000000000       0x31 contiki-exp5438.a(usdn-engine.o)
 .comment       0x0000000000000000       0x31 contiki-exp5438.a(autostart.o)
 .comment       0x0000000000000000       0x31 contiki-exp5438.a(energest.o)
 .comment       0x0000000000000000       0x31 contiki-exp5438.a(etimer.o)
 .comment       0x0000000000000000       0x31 contiki-exp5438.a(log-ng.o)
 .comment       0x0000000000000000       0x31 contiki-exp5438.a(ctimer.o)
 .comment       0x0000000000000000       0x31 contiki-exp5438.a(process.o)
 .comment       0x0000000000000000       0x31 contiki-exp5438.a(rtimer.o)
 .comment       0x0000000000000000       0x31 contiki-exp5438.a(timer.o)
 .comment       0x0000000000000000       0x31 contiki-exp5438.a(list.o)
 .comment       0x0000000000000000       0x31 contiki-exp5438.a(memb.o)
 .comment       0x0000000000000000       0x31 contiki-exp5438.a(random.o)
 .comment       0x0000000000000000       0x31 contiki-exp5438.a(uip-ds6.o)
 .comment       0x0000000000000000       0x31 contiki-exp5438.a(uip-ds6-route.o)
 .comment       0x0000000000000000       0x31 contiki-exp5438.a(uip6.o)
 .comment       0x0000000000000000       0x31 contiki-exp5438.a(uip-ds6-nbr.o)
 .comment       0x0000000000000000       0x31 contiki-exp5438.a(uip-nd6.o)
 .comment       0x0000000000000000       0x31 contiki-exp5438.a(sicslowpan.o)
 .comment       0x0000000000000000       0x31 contiki-exp5438.a(uip-debug.o)
 .comment       0x0000000000000000       0x31 contiki-exp5438.a(uip-udp-packet.)
 .comment       0x0000000000000000       0x31 contiki-exp5438.a(tcpip.o)
 .comment       0x0000000000000000       0x31 contiki-exp5438.a(simple-udp.o)
 .comment       0x0000000000000000       0x31 contiki-exp5438.a(rpl-ext-header.)
 .comment       0x0000000000000000       0x31 contiki-exp5438.a(rpl.o)
 .comment       0x0000000000000000       0x31 contiki-exp5438.a(rpl-ns.o)
 .comment       0x0000000000000000       0x31 contiki-exp5438.a(rpl-dag.o)
 .comment       0x0000000000000000       0x31 contiki-exp5438.a(queuebuf.o)
 .comment       0x0000000000000000       0x31 contiki-exp5438.a(nbr-table.o)
 .comment       0x0000000000000000       0x31 contiki-exp5438.a(packetbuf.o)
 .comment       0x0000000000000000       0x31 contiki-exp5438.a(linkaddr.o)
 .comment       0x0000000000000000       0x31 contiki-exp5438.a(link-stats.o)
 .comment       0x0000000000000000       0x31 contiki-exp5438.a(framer-802154.o)
 .comment       0x0000000000000000       0x31 contiki-exp5438.a(csma.o)
 .comment       0x0000000000000000       0x31 contiki-exp5438.a(frame802154.o)
 .comment       0x0000000000000000       0x31 contiki-exp5438.a(mac.o)
 .comment       0x0000000000000000       0x31 contiki-exp5438.a(nullrdc.o)
 .comment       0x0000000000000000       0x31 contiki-exp5438.a(nullsec.o)
 .comment       0x0000000000000000       0x31 contiki-exp5438.a(spix.o)
 .comment       0x0000000000000000       0x31 contiki-exp5438.a(sdn-ft.o)
 .comment       0x0000000000000000       0x31 contiki-exp5438.a(sdn-cd.o)
 .comment       0x0000000000000000       0x31 contiki-exp5438.a(sdn-ext-header.)
 .comment       0x0000000000000000       0x31 contiki-exp5438.a(sdn-packetbuf.o)
 .comment       0x0000000000000000       0x31 contiki-exp5438.a(stimer.o)
 .comment       0x0000000000000000       0x31 contiki-exp5438.a(uip-icmp6.o)
 .comment       0x0000000000000000       0x31 contiki-exp5438.a(rpl-icmp6.o)
 .comment       0x0000000000000000       0x31 contiki-exp5438.a(rpl-sdn.o)
 .comment       0x0000000000000000       0x31 contiki-exp5438.a(rpl-timers.o)
 .comment       0x0000000000000000       0x31 contiki-exp5438.a(rpl-nbr-policy.)
 .comment       0x0000000000000000       0x31 contiki-exp5438.a(rpl-mrhof.o)
 .comment       0x0000000000000000       0x31 contiki-exp5438.a(mac-sequence.o)
 .comment       0x0000000000000000       0x31 /home/mkulkarni/opt/compiler/mspgcc-4.7.3/bin/../lib/gcc/msp430/4.7.3/mcpu-430x/mmpy-16/msr20/mc20/libgcc.a(_fixunssfsi.o)
 .comment       0x0000000000000000       0x31 /home/mkulkarni/opt/compiler/mspgcc-4.7.3/bin/../lib/gcc/msp430/4.7.3/mcpu-430x/mmpy-16/msr20/mc20/libgcc.a(_addsub_sf.o)
 .comment       0x0000000000000000       0x31 /home/mkulkarni/opt/compiler/mspgcc-4.7.3/bin/../lib/gcc/msp430/4.7.3/mcpu-430x/mmpy-16/msr20/mc20/libgcc.a(_mul_sf.o)
 .comment       0x0000000000000000       0x31 /home/mkulkarni/opt/compiler/mspgcc-4.7.3/bin/../lib/gcc/msp430/4.7.3/mcpu-430x/mmpy-16/msr20/mc20/libgcc.a(_ge_sf.o)
 .comment       0x0000000000000000       0x31 /home/mkulkarni/opt/compiler/mspgcc-4.7.3/bin/../lib/gcc/msp430/4.7.3/mcpu-430x/mmpy-16/msr20/mc20/libgcc.a(_sf_to_si.o)
 .comment       0x0000000000000000       0x31 /home/mkulkarni/opt/compiler/mspgcc-4.7.3/bin/../lib/gcc/msp430/4.7.3/mcpu-430x/mmpy-16/msr20/mc20/libgcc.a(_thenan_sf.o)
 .comment       0x0000000000000000       0x31 /home/mkulkarni/opt/compiler/mspgcc-4.7.3/bin/../lib/gcc/msp430/4.7.3/mcpu-430x/mmpy-16/msr20/mc20/libgcc.a(_usi_to_sf.o)
 .comment       0x0000000000000000       0x31 /home/mkulkarni/opt/compiler/mspgcc-4.7.3/bin/../lib/gcc/msp430/4.7.3/mcpu-430x/mmpy-16/msr20/mc20/libgcc.a(_clzsi2.o)
 .comment       0x0000000000000000       0x31 /home/mkulkarni/opt/compiler/mspgcc-4.7.3/bin/../lib/gcc/msp430/4.7.3/mcpu-430x/mmpy-16/msr20/mc20/libgcc.a(_pack_sf.o)
 .comment       0x0000000000000000       0x31 /home/mkulkarni/opt/compiler/mspgcc-4.7.3/bin/../lib/gcc/msp430/4.7.3/mcpu-430x/mmpy-16/msr20/mc20/libgcc.a(_unpack_sf.o)
 .comment       0x0000000000000000       0x31 /home/mkulkarni/opt/compiler/mspgcc-4.7.3/bin/../lib/gcc/msp430/4.7.3/mcpu-430x/mmpy-16/msr20/mc20/libgcc.a(_fpcmp_parts_sf.o)
 .comment       0x0000000000000000       0x31 /home/mkulkarni/opt/compiler/mspgcc-4.7.3/bin/../lib/gcc/msp430/4.7.3/mcpu-430x/mmpy-16/msr20/mc20/libgcc.a(_clz.o)
 .comment       0x0000000000000000       0x31 /home/mkulkarni/opt/compiler/mspgcc-4.7.3/bin/../lib/gcc/msp430/4.7.3/../../../../msp430/lib/mcpu-430x/mmpy-16/msr20/mc20/libc.a(printf.o)
 .comment       0x0000000000000000       0x31 /home/mkulkarni/opt/compiler/mspgcc-4.7.3/bin/../lib/gcc/msp430/4.7.3/../../../../msp430/lib/mcpu-430x/mmpy-16/msr20/mc20/libc.a(vuprintf.o)
 .comment       0x0000000000000000       0x31 /home/mkulkarni/opt/compiler/mspgcc-4.7.3/bin/../lib/gcc/msp430/4.7.3/../../../../msp430/lib/mcpu-430x/mmpy-16/msr20/mc20/libc.a(puts.o)
 .comment       0x0000000000000000       0x31 /home/mkulkarni/opt/compiler/mspgcc-4.7.3/bin/../lib/gcc/msp430/4.7.3/../../../../msp430/lib/mcpu-430x/mmpy-16/msr20/mc20/libc.a(rand.o)
 .comment       0x0000000000000000       0x31 /home/mkulkarni/opt/compiler/mspgcc-4.7.3/bin/../lib/gcc/msp430/4.7.3/../../../../msp430/lib/mcpu-430x/mmpy-16/msr20/mc20/libc.a(memcmp.o)
 .comment       0x0000000000000000       0x31 /home/mkulkarni/opt/compiler/mspgcc-4.7.3/bin/../lib/gcc/msp430/4.7.3/../../../../msp430/lib/mcpu-430x/mmpy-16/msr20/mc20/libc.a(memcpy.o)
 .comment       0x0000000000000000       0x31 /home/mkulkarni/opt/compiler/mspgcc-4.7.3/bin/../lib/gcc/msp430/4.7.3/../../../../msp430/lib/mcpu-430x/mmpy-16/msr20/mc20/libc.a(memmove.o)
 .comment       0x0000000000000000       0x31 /home/mkulkarni/opt/compiler/mspgcc-4.7.3/bin/../lib/gcc/msp430/4.7.3/../../../../msp430/lib/mcpu-430x/mmpy-16/msr20/mc20/libc.a(memset.o)

.debug
 *(.debug)

.line
 *(.line)

.debug_srcinfo
 *(.debug_srcinfo)

.debug_sfnames
 *(.debug_sfnames)

.debug_aranges  0x0000000000000000      0x440
 *(.debug_aranges)
 .debug_aranges
                0x0000000000000000       0x20 /home/mkulkarni/opt/compiler/mspgcc-4.7.3/bin/../lib/gcc/msp430/4.7.3/mcpu-430x/mmpy-16/msr20/mc20/crt0ivtbl64.o
 .debug_aranges
                0x0000000000000020       0x20 /home/mkulkarni/opt/compiler/mspgcc-4.7.3/bin/../lib/gcc/msp430/4.7.3/mcpu-430x/mmpy-16/msr20/mc20/libgcc.a(_udivmod16.o)
 .debug_aranges
                0x0000000000000040       0x20 /home/mkulkarni/opt/compiler/mspgcc-4.7.3/bin/../lib/gcc/msp430/4.7.3/mcpu-430x/mmpy-16/msr20/mc20/libgcc.a(_divmod16.o)
 .debug_aranges
                0x0000000000000060       0x20 /home/mkulkarni/opt/compiler/mspgcc-4.7.3/bin/../lib/gcc/msp430/4.7.3/mcpu-430x/mmpy-16/msr20/mc20/libgcc.a(_udivmod32.o)
 .debug_aranges
                0x0000000000000080       0x20 /home/mkulkarni/opt/compiler/mspgcc-4.7.3/bin/../lib/gcc/msp430/4.7.3/mcpu-430x/mmpy-16/msr20/mc20/libgcc.a(_divmod32.o)
 .debug_aranges
                0x00000000000000a0       0x20 /home/mkulkarni/opt/compiler/mspgcc-4.7.3/bin/../lib/gcc/msp430/4.7.3/mcpu-430x/mmpy-16/msr20/mc20/libgcc.a(_fixunssfsi.o)
 .debug_aranges
                0x00000000000000c0       0x30 /home/mkulkarni/opt/compiler/mspgcc-4.7.3/bin/../lib/gcc/msp430/4.7.3/mcpu-430x/mmpy-16/msr20/mc20/libgcc.a(_addsub_sf.o)
 .debug_aranges
                0x00000000000000f0       0x20 /home/mkulkarni/opt/compiler/mspgcc-4.7.3/bin/../lib/gcc/msp430/4.7.3/mcpu-430x/mmpy-16/msr20/mc20/libgcc.a(_mul_sf.o)
 .debug_aranges
                0x0000000000000110       0x20 /home/mkulkarni/opt/compiler/mspgcc-4.7.3/bin/../lib/gcc/msp430/4.7.3/mcpu-430x/mmpy-16/msr20/mc20/libgcc.a(_ge_sf.o)
 .debug_aranges
                0x0000000000000130       0x20 /home/mkulkarni/opt/compiler/mspgcc-4.7.3/bin/../lib/gcc/msp430/4.7.3/mcpu-430x/mmpy-16/msr20/mc20/libgcc.a(_sf_to_si.o)
 .debug_aranges
                0x0000000000000150       0x18 /home/mkulkarni/opt/compiler/mspgcc-4.7.3/bin/../lib/gcc/msp430/4.7.3/mcpu-430x/mmpy-16/msr20/mc20/libgcc.a(_thenan_sf.o)
 .debug_aranges
                0x0000000000000168       0x20 /home/mkulkarni/opt/compiler/mspgcc-4.7.3/bin/../lib/gcc/msp430/4.7.3/mcpu-430x/mmpy-16/msr20/mc20/libgcc.a(_usi_to_sf.o)
 .debug_aranges
                0x0000000000000188       0x20 /home/mkulkarni/opt/compiler/mspgcc-4.7.3/bin/../lib/gcc/msp430/4.7.3/mcpu-430x/mmpy-16/msr20/mc20/libgcc.a(_clzsi2.o)
 .debug_aranges
                0x00000000000001a8       0x20 /home/mkulkarni/opt/compiler/mspgcc-4.7.3/bin/../lib/gcc/msp430/4.7.3/mcpu-430x/mmpy-16/msr20/mc20/libgcc.a(_pack_sf.o)
 .debug_aranges
                0x00000000000001c8       0x20 /home/mkulkarni/opt/compiler/mspgcc-4.7.3/bin/../lib/gcc/msp430/4.7.3/mcpu-430x/mmpy-16/msr20/mc20/libgcc.a(_unpack_sf.o)
 .debug_aranges
                0x00000000000001e8       0x20 /home/mkulkarni/opt/compiler/mspgcc-4.7.3/bin/../lib/gcc/msp430/4.7.3/mcpu-430x/mmpy-16/msr20/mc20/libgcc.a(_fpcmp_parts_sf.o)
 .debug_aranges
                0x0000000000000208       0x18 /home/mkulkarni/opt/compiler/mspgcc-4.7.3/bin/../lib/gcc/msp430/4.7.3/mcpu-430x/mmpy-16/msr20/mc20/libgcc.a(_clz.o)
 .debug_aranges
                0x0000000000000220       0x28 /home/mkulkarni/opt/compiler/mspgcc-4.7.3/bin/../lib/gcc/msp430/4.7.3/../../../../msp430/lib/mcpu-430x/mmpy-16/msr20/mc20/libc.a(printf.o)
 .debug_aranges
                0x0000000000000248       0x28 /home/mkulkarni/opt/compiler/mspgcc-4.7.3/bin/../lib/gcc/msp430/4.7.3/../../../../msp430/lib/mcpu-430x/mmpy-16/msr20/mc20/libc.a(vuprintf.o)
 .debug_aranges
                0x0000000000000270       0x20 /home/mkulkarni/opt/compiler/mspgcc-4.7.3/bin/../lib/gcc/msp430/4.7.3/../../../../msp430/lib/mcpu-430x/mmpy-16/msr20/mc20/libc.a(puts.o)
 .debug_aranges
                0x0000000000000290       0x30 /home/mkulkarni/opt/compiler/mspgcc-4.7.3/bin/../lib/gcc/msp430/4.7.3/../../../../msp430/lib/mcpu-430x/mmpy-16/msr20/mc20/libc.a(rand.o)
 .debug_aranges
                0x00000000000002c0       0x20 /home/mkulkarni/opt/compiler/mspgcc-4.7.3/bin/../lib/gcc/msp430/4.7.3/../../../../msp430/lib/mcpu-430x/mmpy-16/msr20/mc20/libc.a(memcmp.o)
 .debug_aranges
                0x00000000000002e0       0x20 /home/mkulkarni/opt/compiler/mspgcc-4.7.3/bin/../lib/gcc/msp430/4.7.3/../../../../msp430/lib/mcpu-430x/mmpy-16/msr20/mc20/libc.a(memcpy.o)
 .debug_aranges
                0x0000000000000300       0x20 /home/mkulkarni/opt/compiler/mspgcc-4.7.3/bin/../lib/gcc/msp430/4.7.3/../../../../msp430/lib/mcpu-430x/mmpy-16/msr20/mc20/libc.a(memmove.o)
 .debug_aranges
                0x0000000000000320       0x20 /home/mkulkarni/opt/compiler/mspgcc-4.7.3/bin/../lib/gcc/msp430/4.7.3/../../../../msp430/lib/mcpu-430x/mmpy-16/msr20/mc20/libc.a(memset.o)
 .debug_aranges
                0x0000000000000340       0x20 /home/mkulkarni/opt/compiler/mspgcc-4.7.3/bin/../lib/gcc/msp430/4.7.3/mcpu-430x/mmpy-16/msr20/mc20/libgcc.a(_mulsi3.o)
 .debug_aranges
                0x0000000000000360       0x20 /home/mkulkarni/opt/compiler/mspgcc-4.7.3/bin/../lib/gcc/msp430/4.7.3/mcpu-430x/mmpy-16/msr20/mc20/libgcc.a(_udivmod64.o)
 .debug_aranges
                0x0000000000000380       0x20 /home/mkulkarni/opt/compiler/mspgcc-4.7.3/bin/../lib/gcc/msp430/4.7.3/mcpu-430x/mmpy-16/msr20/mc20/libcrt0.a(__watchdog_support.o)
 .debug_aranges
                0x00000000000003a0       0x20 /home/mkulkarni/opt/compiler/mspgcc-4.7.3/bin/../lib/gcc/msp430/4.7.3/mcpu-430x/mmpy-16/msr20/mc20/libcrt0.a(__init_stack.o)
 .debug_aranges
                0x00000000000003c0       0x20 /home/mkulkarni/opt/compiler/mspgcc-4.7.3/bin/../lib/gcc/msp430/4.7.3/mcpu-430x/mmpy-16/msr20/mc20/libcrt0.a(_copy_data.o)
 .debug_aranges
                0x00000000000003e0       0x20 /home/mkulkarni/opt/compiler/mspgcc-4.7.3/bin/../lib/gcc/msp430/4.7.3/mcpu-430x/mmpy-16/msr20/mc20/libcrt0.a(_clear_bss.o)
 .debug_aranges
                0x0000000000000400       0x20 /home/mkulkarni/opt/compiler/mspgcc-4.7.3/bin/../lib/gcc/msp430/4.7.3/mcpu-430x/mmpy-16/msr20/mc20/libcrt0.a(_endless_loop__.o)
 .debug_aranges
                0x0000000000000420       0x20 /home/mkulkarni/opt/compiler/mspgcc-4.7.3/bin/../lib/gcc/msp430/4.7.3/mcpu-430x/mmpy-16/msr20/mc20/libcrt0.a(_unexpected_.o)

.debug_pubnames
 *(.debug_pubnames)

.debug_info     0x0000000000000000     0x3594
 *(.debug_info)
 .debug_info    0x0000000000000000       0xbf /home/mkulkarni/opt/compiler/mspgcc-4.7.3/bin/../lib/gcc/msp430/4.7.3/mcpu-430x/mmpy-16/msr20/mc20/crt0ivtbl64.o
 .debug_info    0x00000000000000bf       0xbc /home/mkulkarni/opt/compiler/mspgcc-4.7.3/bin/../lib/gcc/msp430/4.7.3/mcpu-430x/mmpy-16/msr20/mc20/libgcc.a(_udivmod16.o)
 .debug_info    0x000000000000017b       0xbc /home/mkulkarni/opt/compiler/mspgcc-4.7.3/bin/../lib/gcc/msp430/4.7.3/mcpu-430x/mmpy-16/msr20/mc20/libgcc.a(_divmod16.o)
 .debug_info    0x0000000000000237       0xbc /home/mkulkarni/opt/compiler/mspgcc-4.7.3/bin/../lib/gcc/msp430/4.7.3/mcpu-430x/mmpy-16/msr20/mc20/libgcc.a(_udivmod32.o)
 .debug_info    0x00000000000002f3       0xbc /home/mkulkarni/opt/compiler/mspgcc-4.7.3/bin/../lib/gcc/msp430/4.7.3/mcpu-430x/mmpy-16/msr20/mc20/libgcc.a(_divmod32.o)
 .debug_info    0x00000000000003af       0xc2 /home/mkulkarni/opt/compiler/mspgcc-4.7.3/bin/../lib/gcc/msp430/4.7.3/mcpu-430x/mmpy-16/msr20/mc20/libgcc.a(_fixunssfsi.o)
 .debug_info    0x0000000000000471      0x531 /home/mkulkarni/opt/compiler/mspgcc-4.7.3/bin/../lib/gcc/msp430/4.7.3/mcpu-430x/mmpy-16/msr20/mc20/libgcc.a(_addsub_sf.o)
 .debug_info    0x00000000000009a2      0x470 /home/mkulkarni/opt/compiler/mspgcc-4.7.3/bin/../lib/gcc/msp430/4.7.3/mcpu-430x/mmpy-16/msr20/mc20/libgcc.a(_mul_sf.o)
 .debug_info    0x0000000000000e12      0x30c /home/mkulkarni/opt/compiler/mspgcc-4.7.3/bin/../lib/gcc/msp430/4.7.3/mcpu-430x/mmpy-16/msr20/mc20/libgcc.a(_ge_sf.o)
 .debug_info    0x000000000000111e      0x2d9 /home/mkulkarni/opt/compiler/mspgcc-4.7.3/bin/../lib/gcc/msp430/4.7.3/mcpu-430x/mmpy-16/msr20/mc20/libgcc.a(_sf_to_si.o)
 .debug_info    0x00000000000013f7      0x169 /home/mkulkarni/opt/compiler/mspgcc-4.7.3/bin/../lib/gcc/msp430/4.7.3/mcpu-430x/mmpy-16/msr20/mc20/libgcc.a(_thenan_sf.o)
 .debug_info    0x0000000000001560      0x26a /home/mkulkarni/opt/compiler/mspgcc-4.7.3/bin/../lib/gcc/msp430/4.7.3/mcpu-430x/mmpy-16/msr20/mc20/libgcc.a(_usi_to_sf.o)
 .debug_info    0x00000000000017ca      0x11d /home/mkulkarni/opt/compiler/mspgcc-4.7.3/bin/../lib/gcc/msp430/4.7.3/mcpu-430x/mmpy-16/msr20/mc20/libgcc.a(_clzsi2.o)
 .debug_info    0x00000000000018e7      0x2ce /home/mkulkarni/opt/compiler/mspgcc-4.7.3/bin/../lib/gcc/msp430/4.7.3/mcpu-430x/mmpy-16/msr20/mc20/libgcc.a(_pack_sf.o)
 .debug_info    0x0000000000001bb5      0x256 /home/mkulkarni/opt/compiler/mspgcc-4.7.3/bin/../lib/gcc/msp430/4.7.3/mcpu-430x/mmpy-16/msr20/mc20/libgcc.a(_unpack_sf.o)
 .debug_info    0x0000000000001e0b      0x1e9 /home/mkulkarni/opt/compiler/mspgcc-4.7.3/bin/../lib/gcc/msp430/4.7.3/mcpu-430x/mmpy-16/msr20/mc20/libgcc.a(_fpcmp_parts_sf.o)
 .debug_info    0x0000000000001ff4       0xc5 /home/mkulkarni/opt/compiler/mspgcc-4.7.3/bin/../lib/gcc/msp430/4.7.3/mcpu-430x/mmpy-16/msr20/mc20/libgcc.a(_clz.o)
 .debug_info    0x00000000000020b9      0x18d /home/mkulkarni/opt/compiler/mspgcc-4.7.3/bin/../lib/gcc/msp430/4.7.3/../../../../msp430/lib/mcpu-430x/mmpy-16/msr20/mc20/libc.a(printf.o)
 .debug_info    0x0000000000002246      0x673 /home/mkulkarni/opt/compiler/mspgcc-4.7.3/bin/../lib/gcc/msp430/4.7.3/../../../../msp430/lib/mcpu-430x/mmpy-16/msr20/mc20/libc.a(vuprintf.o)
 .debug_info    0x00000000000028b9       0xe1 /home/mkulkarni/opt/compiler/mspgcc-4.7.3/bin/../lib/gcc/msp430/4.7.3/../../../../msp430/lib/mcpu-430x/mmpy-16/msr20/mc20/libc.a(puts.o)
 .debug_info    0x000000000000299a      0x172 /home/mkulkarni/opt/compiler/mspgcc-4.7.3/bin/../lib/gcc/msp430/4.7.3/../../../../msp430/lib/mcpu-430x/mmpy-16/msr20/mc20/libc.a(rand.o)
 .debug_info    0x0000000000002b0c       0xff /home/mkulkarni/opt/compiler/mspgcc-4.7.3/bin/../lib/gcc/msp430/4.7.3/../../../../msp430/lib/mcpu-430x/mmpy-16/msr20/mc20/libc.a(memcmp.o)
 .debug_info    0x0000000000002c0b      0x144 /home/mkulkarni/opt/compiler/mspgcc-4.7.3/bin/../lib/gcc/msp430/4.7.3/../../../../msp430/lib/mcpu-430x/mmpy-16/msr20/mc20/libc.a(memcpy.o)
 .debug_info    0x0000000000002d4f      0x144 /home/mkulkarni/opt/compiler/mspgcc-4.7.3/bin/../lib/gcc/msp430/4.7.3/../../../../msp430/lib/mcpu-430x/mmpy-16/msr20/mc20/libc.a(memmove.o)
 .debug_info    0x0000000000002e93      0x12d /home/mkulkarni/opt/compiler/mspgcc-4.7.3/bin/../lib/gcc/msp430/4.7.3/../../../../msp430/lib/mcpu-430x/mmpy-16/msr20/mc20/libc.a(memset.o)
 .debug_info    0x0000000000002fc0       0xbc /home/mkulkarni/opt/compiler/mspgcc-4.7.3/bin/../lib/gcc/msp430/4.7.3/mcpu-430x/mmpy-16/msr20/mc20/libgcc.a(_mulsi3.o)
 .debug_info    0x000000000000307c       0xbc /home/mkulkarni/opt/compiler/mspgcc-4.7.3/bin/../lib/gcc/msp430/4.7.3/mcpu-430x/mmpy-16/msr20/mc20/libgcc.a(_udivmod64.o)
 .debug_info    0x0000000000003138       0xba /home/mkulkarni/opt/compiler/mspgcc-4.7.3/bin/../lib/gcc/msp430/4.7.3/mcpu-430x/mmpy-16/msr20/mc20/libcrt0.a(__watchdog_support.o)
 .debug_info    0x00000000000031f2       0xba /home/mkulkarni/opt/compiler/mspgcc-4.7.3/bin/../lib/gcc/msp430/4.7.3/mcpu-430x/mmpy-16/msr20/mc20/libcrt0.a(__init_stack.o)
 .debug_info    0x00000000000032ac       0xba /home/mkulkarni/opt/compiler/mspgcc-4.7.3/bin/../lib/gcc/msp430/4.7.3/mcpu-430x/mmpy-16/msr20/mc20/libcrt0.a(_copy_data.o)
 .debug_info    0x0000000000003366       0xba /home/mkulkarni/opt/compiler/mspgcc-4.7.3/bin/../lib/gcc/msp430/4.7.3/mcpu-430x/mmpy-16/msr20/mc20/libcrt0.a(_clear_bss.o)
 .debug_info    0x0000000000003420       0xba /home/mkulkarni/opt/compiler/mspgcc-4.7.3/bin/../lib/gcc/msp430/4.7.3/mcpu-430x/mmpy-16/msr20/mc20/libcrt0.a(_endless_loop__.o)
 .debug_info    0x00000000000034da       0xba /home/mkulkarni/opt/compiler/mspgcc-4.7.3/bin/../lib/gcc/msp430/4.7.3/mcpu-430x/mmpy-16/msr20/mc20/libcrt0.a(_unexpected_.o)
 *(.gnu.linkonce.wi.*)

.debug_abbrev   0x0000000000000000     0x1802
 *(.debug_abbrev)
 .debug_abbrev  0x0000000000000000       0x14 /home/mkulkarni/opt/compiler/mspgcc-4.7.3/bin/../lib/gcc/msp430/4.7.3/mcpu-430x/mmpy-16/msr20/mc20/crt0ivtbl64.o
 .debug_abbrev  0x0000000000000014       0x14 /home/mkulkarni/opt/compiler/mspgcc-4.7.3/bin/../lib/gcc/msp430/4.7.3/mcpu-430x/mmpy-16/msr20/mc20/libgcc.a(_udivmod16.o)
 .debug_abbrev  0x0000000000000028       0x14 /home/mkulkarni/opt/compiler/mspgcc-4.7.3/bin/../lib/gcc/msp430/4.7.3/mcpu-430x/mmpy-16/msr20/mc20/libgcc.a(_divmod16.o)
 .debug_abbrev  0x000000000000003c       0x14 /home/mkulkarni/opt/compiler/mspgcc-4.7.3/bin/../lib/gcc/msp430/4.7.3/mcpu-430x/mmpy-16/msr20/mc20/libgcc.a(_udivmod32.o)
 .debug_abbrev  0x0000000000000050       0x14 /home/mkulkarni/opt/compiler/mspgcc-4.7.3/bin/../lib/gcc/msp430/4.7.3/mcpu-430x/mmpy-16/msr20/mc20/libgcc.a(_divmod32.o)
 .debug_abbrev  0x0000000000000064       0x62 /home/mkulkarni/opt/compiler/mspgcc-4.7.3/bin/../lib/gcc/msp430/4.7.3/mcpu-430x/mmpy-16/msr20/mc20/libgcc.a(_fixunssfsi.o)
 .debug_abbrev  0x00000000000000c6      0x204 /home/mkulkarni/opt/compiler/mspgcc-4.7.3/bin/../lib/gcc/msp430/4.7.3/mcpu-430x/mmpy-16/msr20/mc20/libgcc.a(_addsub_sf.o)
 .debug_abbrev  0x00000000000002ca      0x247 /home/mkulkarni/opt/compiler/mspgcc-4.7.3/bin/../lib/gcc/msp430/4.7.3/mcpu-430x/mmpy-16/msr20/mc20/libgcc.a(_mul_sf.o)
 .debug_abbrev  0x0000000000000511      0x1a7 /home/mkulkarni/opt/compiler/mspgcc-4.7.3/bin/../lib/gcc/msp430/4.7.3/mcpu-430x/mmpy-16/msr20/mc20/libgcc.a(_ge_sf.o)
 .debug_abbrev  0x00000000000006b8      0x196 /home/mkulkarni/opt/compiler/mspgcc-4.7.3/bin/../lib/gcc/msp430/4.7.3/mcpu-430x/mmpy-16/msr20/mc20/libgcc.a(_sf_to_si.o)
 .debug_abbrev  0x000000000000084e       0xc5 /home/mkulkarni/opt/compiler/mspgcc-4.7.3/bin/../lib/gcc/msp430/4.7.3/mcpu-430x/mmpy-16/msr20/mc20/libgcc.a(_thenan_sf.o)
 .debug_abbrev  0x0000000000000913      0x1c3 /home/mkulkarni/opt/compiler/mspgcc-4.7.3/bin/../lib/gcc/msp430/4.7.3/mcpu-430x/mmpy-16/msr20/mc20/libgcc.a(_usi_to_sf.o)
 .debug_abbrev  0x0000000000000ad6       0xb1 /home/mkulkarni/opt/compiler/mspgcc-4.7.3/bin/../lib/gcc/msp430/4.7.3/mcpu-430x/mmpy-16/msr20/mc20/libgcc.a(_clzsi2.o)
 .debug_abbrev  0x0000000000000b87      0x199 /home/mkulkarni/opt/compiler/mspgcc-4.7.3/bin/../lib/gcc/msp430/4.7.3/mcpu-430x/mmpy-16/msr20/mc20/libgcc.a(_pack_sf.o)
 .debug_abbrev  0x0000000000000d20      0x152 /home/mkulkarni/opt/compiler/mspgcc-4.7.3/bin/../lib/gcc/msp430/4.7.3/mcpu-430x/mmpy-16/msr20/mc20/libgcc.a(_unpack_sf.o)
 .debug_abbrev  0x0000000000000e72      0x110 /home/mkulkarni/opt/compiler/mspgcc-4.7.3/bin/../lib/gcc/msp430/4.7.3/mcpu-430x/mmpy-16/msr20/mc20/libgcc.a(_fpcmp_parts_sf.o)
 .debug_abbrev  0x0000000000000f82       0x75 /home/mkulkarni/opt/compiler/mspgcc-4.7.3/bin/../lib/gcc/msp430/4.7.3/mcpu-430x/mmpy-16/msr20/mc20/libgcc.a(_clz.o)
 .debug_abbrev  0x0000000000000ff7       0xfa /home/mkulkarni/opt/compiler/mspgcc-4.7.3/bin/../lib/gcc/msp430/4.7.3/../../../../msp430/lib/mcpu-430x/mmpy-16/msr20/mc20/libc.a(printf.o)
 .debug_abbrev  0x00000000000010f1      0x23e /home/mkulkarni/opt/compiler/mspgcc-4.7.3/bin/../lib/gcc/msp430/4.7.3/../../../../msp430/lib/mcpu-430x/mmpy-16/msr20/mc20/libc.a(vuprintf.o)
 .debug_abbrev  0x000000000000132f       0xa3 /home/mkulkarni/opt/compiler/mspgcc-4.7.3/bin/../lib/gcc/msp430/4.7.3/../../../../msp430/lib/mcpu-430x/mmpy-16/msr20/mc20/libc.a(puts.o)
 .debug_abbrev  0x00000000000013d2       0xfb /home/mkulkarni/opt/compiler/mspgcc-4.7.3/bin/../lib/gcc/msp430/4.7.3/../../../../msp430/lib/mcpu-430x/mmpy-16/msr20/mc20/libc.a(rand.o)
 .debug_abbrev  0x00000000000014cd       0x9e /home/mkulkarni/opt/compiler/mspgcc-4.7.3/bin/../lib/gcc/msp430/4.7.3/../../../../msp430/lib/mcpu-430x/mmpy-16/msr20/mc20/libc.a(memcmp.o)
 .debug_abbrev  0x000000000000156b       0xab /home/mkulkarni/opt/compiler/mspgcc-4.7.3/bin/../lib/gcc/msp430/4.7.3/../../../../msp430/lib/mcpu-430x/mmpy-16/msr20/mc20/libc.a(memcpy.o)
 .debug_abbrev  0x0000000000001616       0xab /home/mkulkarni/opt/compiler/mspgcc-4.7.3/bin/../lib/gcc/msp430/4.7.3/../../../../msp430/lib/mcpu-430x/mmpy-16/msr20/mc20/libc.a(memmove.o)
 .debug_abbrev  0x00000000000016c1       0xa1 /home/mkulkarni/opt/compiler/mspgcc-4.7.3/bin/../lib/gcc/msp430/4.7.3/../../../../msp430/lib/mcpu-430x/mmpy-16/msr20/mc20/libc.a(memset.o)
 .debug_abbrev  0x0000000000001762       0x14 /home/mkulkarni/opt/compiler/mspgcc-4.7.3/bin/../lib/gcc/msp430/4.7.3/mcpu-430x/mmpy-16/msr20/mc20/libgcc.a(_mulsi3.o)
 .debug_abbrev  0x0000000000001776       0x14 /home/mkulkarni/opt/compiler/mspgcc-4.7.3/bin/../lib/gcc/msp430/4.7.3/mcpu-430x/mmpy-16/msr20/mc20/libgcc.a(_udivmod64.o)
 .debug_abbrev  0x000000000000178a       0x14 /home/mkulkarni/opt/compiler/mspgcc-4.7.3/bin/../lib/gcc/msp430/4.7.3/mcpu-430x/mmpy-16/msr20/mc20/libcrt0.a(__watchdog_support.o)
 .debug_abbrev  0x000000000000179e       0x14 /home/mkulkarni/opt/compiler/mspgcc-4.7.3/bin/../lib/gcc/msp430/4.7.3/mcpu-430x/mmpy-16/msr20/mc20/libcrt0.a(__init_stack.o)
 .debug_abbrev  0x00000000000017b2       0x14 /home/mkulkarni/opt/compiler/mspgcc-4.7.3/bin/../lib/gcc/msp430/4.7.3/mcpu-430x/mmpy-16/msr20/mc20/libcrt0.a(_copy_data.o)
 .debug_abbrev  0x00000000000017c6       0x14 /home/mkulkarni/opt/compiler/mspgcc-4.7.3/bin/../lib/gcc/msp430/4.7.3/mcpu-430x/mmpy-16/msr20/mc20/libcrt0.a(_clear_bss.o)
 .debug_abbrev  0x00000000000017da       0x14 /home/mkulkarni/opt/compiler/mspgcc-4.7.3/bin/../lib/gcc/msp430/4.7.3/mcpu-430x/mmpy-16/msr20/mc20/libcrt0.a(_endless_loop__.o)
 .debug_abbrev  0x00000000000017ee       0x14 /home/mkulkarni/opt/compiler/mspgcc-4.7.3/bin/../lib/gcc/msp430/4.7.3/mcpu-430x/mmpy-16/msr20/mc20/libcrt0.a(_unexpected_.o)

.debug_line     0x0000000000000000     0x1705
 *(.debug_line)
 .debug_line    0x0000000000000000       0x6f /home/mkulkarni/opt/compiler/mspgcc-4.7.3/bin/../lib/gcc/msp430/4.7.3/mcpu-430x/mmpy-16/msr20/mc20/crt0ivtbl64.o
 .debug_line    0x000000000000006f       0x7b /home/mkulkarni/opt/compiler/mspgcc-4.7.3/bin/../lib/gcc/msp430/4.7.3/mcpu-430x/mmpy-16/msr20/mc20/libgcc.a(_udivmod16.o)
 .debug_line    0x00000000000000ea       0x86 /home/mkulkarni/opt/compiler/mspgcc-4.7.3/bin/../lib/gcc/msp430/4.7.3/mcpu-430x/mmpy-16/msr20/mc20/libgcc.a(_divmod16.o)
 .debug_line    0x0000000000000170       0x86 /home/mkulkarni/opt/compiler/mspgcc-4.7.3/bin/../lib/gcc/msp430/4.7.3/mcpu-430x/mmpy-16/msr20/mc20/libgcc.a(_udivmod32.o)
 .debug_line    0x00000000000001f6       0x8f /home/mkulkarni/opt/compiler/mspgcc-4.7.3/bin/../lib/gcc/msp430/4.7.3/mcpu-430x/mmpy-16/msr20/mc20/libgcc.a(_divmod32.o)
 .debug_line    0x0000000000000285       0x73 /home/mkulkarni/opt/compiler/mspgcc-4.7.3/bin/../lib/gcc/msp430/4.7.3/mcpu-430x/mmpy-16/msr20/mc20/libgcc.a(_fixunssfsi.o)
 .debug_line    0x00000000000002f8      0x106 /home/mkulkarni/opt/compiler/mspgcc-4.7.3/bin/../lib/gcc/msp430/4.7.3/mcpu-430x/mmpy-16/msr20/mc20/libgcc.a(_addsub_sf.o)
 .debug_line    0x00000000000003fe       0xf2 /home/mkulkarni/opt/compiler/mspgcc-4.7.3/bin/../lib/gcc/msp430/4.7.3/mcpu-430x/mmpy-16/msr20/mc20/libgcc.a(_mul_sf.o)
 .debug_line    0x00000000000004f0       0x7a /home/mkulkarni/opt/compiler/mspgcc-4.7.3/bin/../lib/gcc/msp430/4.7.3/mcpu-430x/mmpy-16/msr20/mc20/libgcc.a(_ge_sf.o)
 .debug_line    0x000000000000056a       0x8e /home/mkulkarni/opt/compiler/mspgcc-4.7.3/bin/../lib/gcc/msp430/4.7.3/mcpu-430x/mmpy-16/msr20/mc20/libgcc.a(_sf_to_si.o)
 .debug_line    0x00000000000005f8       0xa2 /home/mkulkarni/opt/compiler/mspgcc-4.7.3/bin/../lib/gcc/msp430/4.7.3/mcpu-430x/mmpy-16/msr20/mc20/libgcc.a(_thenan_sf.o)
 .debug_line    0x000000000000069a       0x93 /home/mkulkarni/opt/compiler/mspgcc-4.7.3/bin/../lib/gcc/msp430/4.7.3/mcpu-430x/mmpy-16/msr20/mc20/libgcc.a(_usi_to_sf.o)
 .debug_line    0x000000000000072d       0x9d /home/mkulkarni/opt/compiler/mspgcc-4.7.3/bin/../lib/gcc/msp430/4.7.3/mcpu-430x/mmpy-16/msr20/mc20/libgcc.a(_clzsi2.o)
 .debug_line    0x00000000000007ca       0xc2 /home/mkulkarni/opt/compiler/mspgcc-4.7.3/bin/../lib/gcc/msp430/4.7.3/mcpu-430x/mmpy-16/msr20/mc20/libgcc.a(_pack_sf.o)
 .debug_line    0x000000000000088c       0xa4 /home/mkulkarni/opt/compiler/mspgcc-4.7.3/bin/../lib/gcc/msp430/4.7.3/mcpu-430x/mmpy-16/msr20/mc20/libgcc.a(_unpack_sf.o)
 .debug_line    0x0000000000000930       0xba /home/mkulkarni/opt/compiler/mspgcc-4.7.3/bin/../lib/gcc/msp430/4.7.3/mcpu-430x/mmpy-16/msr20/mc20/libgcc.a(_fpcmp_parts_sf.o)
 .debug_line    0x00000000000009ea       0xa4 /home/mkulkarni/opt/compiler/mspgcc-4.7.3/bin/../lib/gcc/msp430/4.7.3/mcpu-430x/mmpy-16/msr20/mc20/libgcc.a(_clz.o)
 .debug_line    0x0000000000000a8e       0xaf /home/mkulkarni/opt/compiler/mspgcc-4.7.3/bin/../lib/gcc/msp430/4.7.3/../../../../msp430/lib/mcpu-430x/mmpy-16/msr20/mc20/libc.a(printf.o)
 .debug_line    0x0000000000000b3d      0x35f /home/mkulkarni/opt/compiler/mspgcc-4.7.3/bin/../lib/gcc/msp430/4.7.3/../../../../msp430/lib/mcpu-430x/mmpy-16/msr20/mc20/libc.a(vuprintf.o)
 .debug_line    0x0000000000000e9c       0x67 /home/mkulkarni/opt/compiler/mspgcc-4.7.3/bin/../lib/gcc/msp430/4.7.3/../../../../msp430/lib/mcpu-430x/mmpy-16/msr20/mc20/libc.a(puts.o)
 .debug_line    0x0000000000000f03       0x6e /home/mkulkarni/opt/compiler/mspgcc-4.7.3/bin/../lib/gcc/msp430/4.7.3/../../../../msp430/lib/mcpu-430x/mmpy-16/msr20/mc20/libc.a(rand.o)
 .debug_line    0x0000000000000f71       0x93 /home/mkulkarni/opt/compiler/mspgcc-4.7.3/bin/../lib/gcc/msp430/4.7.3/../../../../msp430/lib/mcpu-430x/mmpy-16/msr20/mc20/libc.a(memcmp.o)
 .debug_line    0x0000000000001004      0x11c /home/mkulkarni/opt/compiler/mspgcc-4.7.3/bin/../lib/gcc/msp430/4.7.3/../../../../msp430/lib/mcpu-430x/mmpy-16/msr20/mc20/libc.a(memcpy.o)
 .debug_line    0x0000000000001120      0x11b /home/mkulkarni/opt/compiler/mspgcc-4.7.3/bin/../lib/gcc/msp430/4.7.3/../../../../msp430/lib/mcpu-430x/mmpy-16/msr20/mc20/libc.a(memmove.o)
 .debug_line    0x000000000000123b       0xf6 /home/mkulkarni/opt/compiler/mspgcc-4.7.3/bin/../lib/gcc/msp430/4.7.3/../../../../msp430/lib/mcpu-430x/mmpy-16/msr20/mc20/libc.a(memset.o)
 .debug_line    0x0000000000001331       0x7f /home/mkulkarni/opt/compiler/mspgcc-4.7.3/bin/../lib/gcc/msp430/4.7.3/mcpu-430x/mmpy-16/msr20/mc20/libgcc.a(_mulsi3.o)
 .debug_line    0x00000000000013b0       0xc4 /home/mkulkarni/opt/compiler/mspgcc-4.7.3/bin/../lib/gcc/msp430/4.7.3/mcpu-430x/mmpy-16/msr20/mc20/libgcc.a(_udivmod64.o)
 .debug_line    0x0000000000001474       0x6d /home/mkulkarni/opt/compiler/mspgcc-4.7.3/bin/../lib/gcc/msp430/4.7.3/mcpu-430x/mmpy-16/msr20/mc20/libcrt0.a(__watchdog_support.o)
 .debug_line    0x00000000000014e1       0x6b /home/mkulkarni/opt/compiler/mspgcc-4.7.3/bin/../lib/gcc/msp430/4.7.3/mcpu-430x/mmpy-16/msr20/mc20/libcrt0.a(__init_stack.o)
 .debug_line    0x000000000000154c       0x71 /home/mkulkarni/opt/compiler/mspgcc-4.7.3/bin/../lib/gcc/msp430/4.7.3/mcpu-430x/mmpy-16/msr20/mc20/libcrt0.a(_copy_data.o)
 .debug_line    0x00000000000015bd       0x71 /home/mkulkarni/opt/compiler/mspgcc-4.7.3/bin/../lib/gcc/msp430/4.7.3/mcpu-430x/mmpy-16/msr20/mc20/libcrt0.a(_clear_bss.o)
 .debug_line    0x000000000000162e       0x6c /home/mkulkarni/opt/compiler/mspgcc-4.7.3/bin/../lib/gcc/msp430/4.7.3/mcpu-430x/mmpy-16/msr20/mc20/libcrt0.a(_endless_loop__.o)
 .debug_line    0x000000000000169a       0x6b /home/mkulkarni/opt/compiler/mspgcc-4.7.3/bin/../lib/gcc/msp430/4.7.3/mcpu-430x/mmpy-16/msr20/mc20/libcrt0.a(_unexpected_.o)

.debug_frame    0x0000000000000000      0x404
 *(.debug_frame)
 .debug_frame   0x0000000000000000       0x2c /home/mkulkarni/opt/compiler/mspgcc-4.7.3/bin/../lib/gcc/msp430/4.7.3/mcpu-430x/mmpy-16/msr20/mc20/libgcc.a(_fixunssfsi.o)
 .debug_frame   0x000000000000002c       0x68 /home/mkulkarni/opt/compiler/mspgcc-4.7.3/bin/../lib/gcc/msp430/4.7.3/mcpu-430x/mmpy-16/msr20/mc20/libgcc.a(_addsub_sf.o)
 .debug_frame   0x0000000000000094       0x40 /home/mkulkarni/opt/compiler/mspgcc-4.7.3/bin/../lib/gcc/msp430/4.7.3/mcpu-430x/mmpy-16/msr20/mc20/libgcc.a(_mul_sf.o)
 .debug_frame   0x00000000000000d4       0x28 /home/mkulkarni/opt/compiler/mspgcc-4.7.3/bin/../lib/gcc/msp430/4.7.3/mcpu-430x/mmpy-16/msr20/mc20/libgcc.a(_ge_sf.o)
 .debug_frame   0x00000000000000fc       0x28 /home/mkulkarni/opt/compiler/mspgcc-4.7.3/bin/../lib/gcc/msp430/4.7.3/mcpu-430x/mmpy-16/msr20/mc20/libgcc.a(_sf_to_si.o)
 .debug_frame   0x0000000000000124       0x34 /home/mkulkarni/opt/compiler/mspgcc-4.7.3/bin/../lib/gcc/msp430/4.7.3/mcpu-430x/mmpy-16/msr20/mc20/libgcc.a(_usi_to_sf.o)
 .debug_frame   0x0000000000000158       0x30 /home/mkulkarni/opt/compiler/mspgcc-4.7.3/bin/../lib/gcc/msp430/4.7.3/mcpu-430x/mmpy-16/msr20/mc20/libgcc.a(_clzsi2.o)
 .debug_frame   0x0000000000000188       0x30 /home/mkulkarni/opt/compiler/mspgcc-4.7.3/bin/../lib/gcc/msp430/4.7.3/mcpu-430x/mmpy-16/msr20/mc20/libgcc.a(_pack_sf.o)
 .debug_frame   0x00000000000001b8       0x30 /home/mkulkarni/opt/compiler/mspgcc-4.7.3/bin/../lib/gcc/msp430/4.7.3/mcpu-430x/mmpy-16/msr20/mc20/libgcc.a(_unpack_sf.o)
 .debug_frame   0x00000000000001e8       0x2c /home/mkulkarni/opt/compiler/mspgcc-4.7.3/bin/../lib/gcc/msp430/4.7.3/mcpu-430x/mmpy-16/msr20/mc20/libgcc.a(_fpcmp_parts_sf.o)
 .debug_frame   0x0000000000000214       0x34 /home/mkulkarni/opt/compiler/mspgcc-4.7.3/bin/../lib/gcc/msp430/4.7.3/../../../../msp430/lib/mcpu-430x/mmpy-16/msr20/mc20/libc.a(printf.o)
 .debug_frame   0x0000000000000248       0x88 /home/mkulkarni/opt/compiler/mspgcc-4.7.3/bin/../lib/gcc/msp430/4.7.3/../../../../msp430/lib/mcpu-430x/mmpy-16/msr20/mc20/libc.a(vuprintf.o)
 .debug_frame   0x00000000000002d0       0x2c /home/mkulkarni/opt/compiler/mspgcc-4.7.3/bin/../lib/gcc/msp430/4.7.3/../../../../msp430/lib/mcpu-430x/mmpy-16/msr20/mc20/libc.a(puts.o)
 .debug_frame   0x00000000000002fc       0x4c /home/mkulkarni/opt/compiler/mspgcc-4.7.3/bin/../lib/gcc/msp430/4.7.3/../../../../msp430/lib/mcpu-430x/mmpy-16/msr20/mc20/libc.a(rand.o)
 .debug_frame   0x0000000000000348       0x2c /home/mkulkarni/opt/compiler/mspgcc-4.7.3/bin/../lib/gcc/msp430/4.7.3/../../../../msp430/lib/mcpu-430x/mmpy-16/msr20/mc20/libc.a(memcmp.o)
 .debug_frame   0x0000000000000374       0x30 /home/mkulkarni/opt/compiler/mspgcc-4.7.3/bin/../lib/gcc/msp430/4.7.3/../../../../msp430/lib/mcpu-430x/mmpy-16/msr20/mc20/libc.a(memcpy.o)
 .debug_frame   0x00000000000003a4       0x30 /home/mkulkarni/opt/compiler/mspgcc-4.7.3/bin/../lib/gcc/msp430/4.7.3/../../../../msp430/lib/mcpu-430x/mmpy-16/msr20/mc20/libc.a(memmove.o)
 .debug_frame   0x00000000000003d4       0x30 /home/mkulkarni/opt/compiler/mspgcc-4.7.3/bin/../lib/gcc/msp430/4.7.3/../../../../msp430/lib/mcpu-430x/mmpy-16/msr20/mc20/libc.a(memset.o)

.debug_str      0x0000000000000000      0x734
 *(.debug_str)
 .debug_str     0x0000000000000000      0x111 /home/mkulkarni/opt/compiler/mspgcc-4.7.3/bin/../lib/gcc/msp430/4.7.3/mcpu-430x/mmpy-16/msr20/mc20/libgcc.a(_fixunssfsi.o)
                                        0x157 (size before relaxing)
 .debug_str     0x0000000000000111      0x183 /home/mkulkarni/opt/compiler/mspgcc-4.7.3/bin/../lib/gcc/msp430/4.7.3/mcpu-430x/mmpy-16/msr20/mc20/libgcc.a(_addsub_sf.o)
                                        0x286 (size before relaxing)
 .debug_str     0x0000000000000294       0x27 /home/mkulkarni/opt/compiler/mspgcc-4.7.3/bin/../lib/gcc/msp430/4.7.3/mcpu-430x/mmpy-16/msr20/mc20/libgcc.a(_mul_sf.o)
                                        0x23f (size before relaxing)
 .debug_str     0x00000000000002bb       0x20 /home/mkulkarni/opt/compiler/mspgcc-4.7.3/bin/../lib/gcc/msp430/4.7.3/mcpu-430x/mmpy-16/msr20/mc20/libgcc.a(_ge_sf.o)
                                        0x215 (size before relaxing)
 .debug_str     0x00000000000002db        0xa /home/mkulkarni/opt/compiler/mspgcc-4.7.3/bin/../lib/gcc/msp430/4.7.3/mcpu-430x/mmpy-16/msr20/mc20/libgcc.a(_sf_to_si.o)
                                        0x20d (size before relaxing)
 .debug_str     0x00000000000002e5       0x57 /home/mkulkarni/opt/compiler/mspgcc-4.7.3/bin/../lib/gcc/msp430/4.7.3/mcpu-430x/mmpy-16/msr20/mc20/libgcc.a(_thenan_sf.o)
                                        0x1fb (size before relaxing)
 .debug_str     0x000000000000033c       0x2a /home/mkulkarni/opt/compiler/mspgcc-4.7.3/bin/../lib/gcc/msp430/4.7.3/mcpu-430x/mmpy-16/msr20/mc20/libgcc.a(_usi_to_sf.o)
                                        0x1ed (size before relaxing)
 .debug_str     0x0000000000000366       0x17 /home/mkulkarni/opt/compiler/mspgcc-4.7.3/bin/../lib/gcc/msp430/4.7.3/mcpu-430x/mmpy-16/msr20/mc20/libgcc.a(_clzsi2.o)
                                        0x16c (size before relaxing)
 .debug_str     0x000000000000037d        0x7 /home/mkulkarni/opt/compiler/mspgcc-4.7.3/bin/../lib/gcc/msp430/4.7.3/mcpu-430x/mmpy-16/msr20/mc20/libgcc.a(_pack_sf.o)
                                        0x201 (size before relaxing)
 .debug_str     0x0000000000000000      0x1e3 /home/mkulkarni/opt/compiler/mspgcc-4.7.3/bin/../lib/gcc/msp430/4.7.3/mcpu-430x/mmpy-16/msr20/mc20/libgcc.a(_unpack_sf.o)
 .debug_str     0x0000000000000000      0x1c7 /home/mkulkarni/opt/compiler/mspgcc-4.7.3/bin/../lib/gcc/msp430/4.7.3/mcpu-430x/mmpy-16/msr20/mc20/libgcc.a(_fpcmp_parts_sf.o)
 .debug_str     0x0000000000000000      0x1a6 /home/mkulkarni/opt/compiler/mspgcc-4.7.3/bin/../lib/gcc/msp430/4.7.3/mcpu-430x/mmpy-16/msr20/mc20/libgcc.a(_clz.o)
 .debug_str     0x0000000000000384       0xa3 /home/mkulkarni/opt/compiler/mspgcc-4.7.3/bin/../lib/gcc/msp430/4.7.3/../../../../msp430/lib/mcpu-430x/mmpy-16/msr20/mc20/libc.a(printf.o)
                                        0x149 (size before relaxing)
 .debug_str     0x0000000000000427      0x222 /home/mkulkarni/opt/compiler/mspgcc-4.7.3/bin/../lib/gcc/msp430/4.7.3/../../../../msp430/lib/mcpu-430x/mmpy-16/msr20/mc20/libc.a(vuprintf.o)
                                        0x3af (size before relaxing)
 .debug_str     0x0000000000000649       0x1d /home/mkulkarni/opt/compiler/mspgcc-4.7.3/bin/../lib/gcc/msp430/4.7.3/../../../../msp430/lib/mcpu-430x/mmpy-16/msr20/mc20/libc.a(puts.o)
                                        0x10e (size before relaxing)
 .debug_str     0x0000000000000666       0x2f /home/mkulkarni/opt/compiler/mspgcc-4.7.3/bin/../lib/gcc/msp430/4.7.3/../../../../msp430/lib/mcpu-430x/mmpy-16/msr20/mc20/libc.a(rand.o)
                                        0x125 (size before relaxing)
 .debug_str     0x0000000000000695       0x20 /home/mkulkarni/opt/compiler/mspgcc-4.7.3/bin/../lib/gcc/msp430/4.7.3/../../../../msp430/lib/mcpu-430x/mmpy-16/msr20/mc20/libc.a(memcmp.o)
                                        0x111 (size before relaxing)
 .debug_str     0x00000000000006b5       0x3e /home/mkulkarni/opt/compiler/mspgcc-4.7.3/bin/../lib/gcc/msp430/4.7.3/../../../../msp430/lib/mcpu-430x/mmpy-16/msr20/mc20/libc.a(memcpy.o)
                                        0x13f (size before relaxing)
 .debug_str     0x00000000000006f3       0x1b /home/mkulkarni/opt/compiler/mspgcc-4.7.3/bin/../lib/gcc/msp430/4.7.3/../../../../msp430/lib/mcpu-430x/mmpy-16/msr20/mc20/libc.a(memmove.o)
                                        0x141 (size before relaxing)
 .debug_str     0x000000000000070e       0x26 /home/mkulkarni/opt/compiler/mspgcc-4.7.3/bin/../lib/gcc/msp430/4.7.3/../../../../msp430/lib/mcpu-430x/mmpy-16/msr20/mc20/libc.a(memset.o)
                                        0x13d (size before relaxing)

.debug_loc      0x0000000000000000     0x24bd
 *(.debug_loc)
 .debug_loc     0x0000000000000000       0x48 /home/mkulkarni/opt/compiler/mspgcc-4.7.3/bin/../lib/gcc/msp430/4.7.3/mcpu-430x/mmpy-16/msr20/mc20/libgcc.a(_fixunssfsi.o)
 .debug_loc     0x0000000000000048      0x5ed /home/mkulkarni/opt/compiler/mspgcc-4.7.3/bin/../lib/gcc/msp430/4.7.3/mcpu-430x/mmpy-16/msr20/mc20/libgcc.a(_addsub_sf.o)
 .debug_loc     0x0000000000000635      0x289 /home/mkulkarni/opt/compiler/mspgcc-4.7.3/bin/../lib/gcc/msp430/4.7.3/mcpu-430x/mmpy-16/msr20/mc20/libgcc.a(_mul_sf.o)
 .debug_loc     0x00000000000008be       0x7c /home/mkulkarni/opt/compiler/mspgcc-4.7.3/bin/../lib/gcc/msp430/4.7.3/mcpu-430x/mmpy-16/msr20/mc20/libgcc.a(_ge_sf.o)
 .debug_loc     0x000000000000093a       0x88 /home/mkulkarni/opt/compiler/mspgcc-4.7.3/bin/../lib/gcc/msp430/4.7.3/mcpu-430x/mmpy-16/msr20/mc20/libgcc.a(_sf_to_si.o)
 .debug_loc     0x00000000000009c2      0x13f /home/mkulkarni/opt/compiler/mspgcc-4.7.3/bin/../lib/gcc/msp430/4.7.3/mcpu-430x/mmpy-16/msr20/mc20/libgcc.a(_usi_to_sf.o)
 .debug_loc     0x0000000000000b01       0x9e /home/mkulkarni/opt/compiler/mspgcc-4.7.3/bin/../lib/gcc/msp430/4.7.3/mcpu-430x/mmpy-16/msr20/mc20/libgcc.a(_clzsi2.o)
 .debug_loc     0x0000000000000b9f      0x289 /home/mkulkarni/opt/compiler/mspgcc-4.7.3/bin/../lib/gcc/msp430/4.7.3/mcpu-430x/mmpy-16/msr20/mc20/libgcc.a(_pack_sf.o)
 .debug_loc     0x0000000000000e28      0x12c /home/mkulkarni/opt/compiler/mspgcc-4.7.3/bin/../lib/gcc/msp430/4.7.3/mcpu-430x/mmpy-16/msr20/mc20/libgcc.a(_unpack_sf.o)
 .debug_loc     0x0000000000000f54      0x111 /home/mkulkarni/opt/compiler/mspgcc-4.7.3/bin/../lib/gcc/msp430/4.7.3/mcpu-430x/mmpy-16/msr20/mc20/libgcc.a(_fpcmp_parts_sf.o)
 .debug_loc     0x0000000000001065       0x78 /home/mkulkarni/opt/compiler/mspgcc-4.7.3/bin/../lib/gcc/msp430/4.7.3/../../../../msp430/lib/mcpu-430x/mmpy-16/msr20/mc20/libc.a(printf.o)
 .debug_loc     0x00000000000010dd      0xbfe /home/mkulkarni/opt/compiler/mspgcc-4.7.3/bin/../lib/gcc/msp430/4.7.3/../../../../msp430/lib/mcpu-430x/mmpy-16/msr20/mc20/libc.a(vuprintf.o)
 .debug_loc     0x0000000000001cdb       0x3e /home/mkulkarni/opt/compiler/mspgcc-4.7.3/bin/../lib/gcc/msp430/4.7.3/../../../../msp430/lib/mcpu-430x/mmpy-16/msr20/mc20/libc.a(puts.o)
 .debug_loc     0x0000000000001d19       0x78 /home/mkulkarni/opt/compiler/mspgcc-4.7.3/bin/../lib/gcc/msp430/4.7.3/../../../../msp430/lib/mcpu-430x/mmpy-16/msr20/mc20/libc.a(rand.o)
 .debug_loc     0x0000000000001d91       0x6d /home/mkulkarni/opt/compiler/mspgcc-4.7.3/bin/../lib/gcc/msp430/4.7.3/../../../../msp430/lib/mcpu-430x/mmpy-16/msr20/mc20/libc.a(memcmp.o)
 .debug_loc     0x0000000000001dfe      0x2c3 /home/mkulkarni/opt/compiler/mspgcc-4.7.3/bin/../lib/gcc/msp430/4.7.3/../../../../msp430/lib/mcpu-430x/mmpy-16/msr20/mc20/libc.a(memcpy.o)
 .debug_loc     0x00000000000020c1      0x2c3 /home/mkulkarni/opt/compiler/mspgcc-4.7.3/bin/../lib/gcc/msp430/4.7.3/../../../../msp430/lib/mcpu-430x/mmpy-16/msr20/mc20/libc.a(memmove.o)
 .debug_loc     0x0000000000002384      0x139 /home/mkulkarni/opt/compiler/mspgcc-4.7.3/bin/../lib/gcc/msp430/4.7.3/../../../../msp430/lib/mcpu-430x/mmpy-16/msr20/mc20/libc.a(memset.o)

.debug_macinfo
 *(.debug_macinfo)

.debug_pubtypes
 *(.debug_pubtypes)

.debug_ranges   0x0000000000000000      0x248
 *(.debug_ranges)
 .debug_ranges  0x0000000000000000       0x10 /home/mkulkarni/opt/compiler/mspgcc-4.7.3/bin/../lib/gcc/msp430/4.7.3/mcpu-430x/mmpy-16/msr20/mc20/libgcc.a(_fixunssfsi.o)
 .debug_ranges  0x0000000000000010       0x48 /home/mkulkarni/opt/compiler/mspgcc-4.7.3/bin/../lib/gcc/msp430/4.7.3/mcpu-430x/mmpy-16/msr20/mc20/libgcc.a(_addsub_sf.o)
 .debug_ranges  0x0000000000000058       0x68 /home/mkulkarni/opt/compiler/mspgcc-4.7.3/bin/../lib/gcc/msp430/4.7.3/mcpu-430x/mmpy-16/msr20/mc20/libgcc.a(_mul_sf.o)
 .debug_ranges  0x00000000000000c0       0x10 /home/mkulkarni/opt/compiler/mspgcc-4.7.3/bin/../lib/gcc/msp430/4.7.3/mcpu-430x/mmpy-16/msr20/mc20/libgcc.a(_ge_sf.o)
 .debug_ranges  0x00000000000000d0       0x10 /home/mkulkarni/opt/compiler/mspgcc-4.7.3/bin/../lib/gcc/msp430/4.7.3/mcpu-430x/mmpy-16/msr20/mc20/libgcc.a(_sf_to_si.o)
 .debug_ranges  0x00000000000000e0       0x40 /home/mkulkarni/opt/compiler/mspgcc-4.7.3/bin/../lib/gcc/msp430/4.7.3/mcpu-430x/mmpy-16/msr20/mc20/libgcc.a(_usi_to_sf.o)
 .debug_ranges  0x0000000000000120       0x28 /home/mkulkarni/opt/compiler/mspgcc-4.7.3/bin/../lib/gcc/msp430/4.7.3/mcpu-430x/mmpy-16/msr20/mc20/libgcc.a(_clzsi2.o)
 .debug_ranges  0x0000000000000148       0x10 /home/mkulkarni/opt/compiler/mspgcc-4.7.3/bin/../lib/gcc/msp430/4.7.3/mcpu-430x/mmpy-16/msr20/mc20/libgcc.a(_pack_sf.o)
 .debug_ranges  0x0000000000000158       0x10 /home/mkulkarni/opt/compiler/mspgcc-4.7.3/bin/../lib/gcc/msp430/4.7.3/mcpu-430x/mmpy-16/msr20/mc20/libgcc.a(_unpack_sf.o)
 .debug_ranges  0x0000000000000168       0x10 /home/mkulkarni/opt/compiler/mspgcc-4.7.3/bin/../lib/gcc/msp430/4.7.3/mcpu-430x/mmpy-16/msr20/mc20/libgcc.a(_fpcmp_parts_sf.o)
 .debug_ranges  0x0000000000000178       0x18 /home/mkulkarni/opt/compiler/mspgcc-4.7.3/bin/../lib/gcc/msp430/4.7.3/../../../../msp430/lib/mcpu-430x/mmpy-16/msr20/mc20/libc.a(printf.o)
 .debug_ranges  0x0000000000000190       0x48 /home/mkulkarni/opt/compiler/mspgcc-4.7.3/bin/../lib/gcc/msp430/4.7.3/../../../../msp430/lib/mcpu-430x/mmpy-16/msr20/mc20/libc.a(vuprintf.o)
 .debug_ranges  0x00000000000001d8       0x10 /home/mkulkarni/opt/compiler/mspgcc-4.7.3/bin/../lib/gcc/msp430/4.7.3/../../../../msp430/lib/mcpu-430x/mmpy-16/msr20/mc20/libc.a(puts.o)
 .debug_ranges  0x00000000000001e8       0x20 /home/mkulkarni/opt/compiler/mspgcc-4.7.3/bin/../lib/gcc/msp430/4.7.3/../../../../msp430/lib/mcpu-430x/mmpy-16/msr20/mc20/libc.a(rand.o)
 .debug_ranges  0x0000000000000208       0x10 /home/mkulkarni/opt/compiler/mspgcc-4.7.3/bin/../lib/gcc/msp430/4.7.3/../../../../msp430/lib/mcpu-430x/mmpy-16/msr20/mc20/libc.a(memcmp.o)
 .debug_ranges  0x0000000000000218       0x10 /home/mkulkarni/opt/compiler/mspgcc-4.7.3/bin/../lib/gcc/msp430/4.7.3/../../../../msp430/lib/mcpu-430x/mmpy-16/msr20/mc20/libc.a(memcpy.o)
 .debug_ranges  0x0000000000000228       0x10 /home/mkulkarni/opt/compiler/mspgcc-4.7.3/bin/../lib/gcc/msp430/4.7.3/../../../../msp430/lib/mcpu-430x/mmpy-16/msr20/mc20/libc.a(memmove.o)
 .debug_ranges  0x0000000000000238       0x10 /home/mkulkarni/opt/compiler/mspgcc-4.7.3/bin/../lib/gcc/msp430/4.7.3/../../../../msp430/lib/mcpu-430x/mmpy-16/msr20/mc20/libc.a(memset.o)
                0x0000000000005c00                PROVIDE (__stack, (ORIGIN (ram) + 0x4000))
                0x000000000000fd82                __data_start_rom = _etext
                0x000000000000ff7e                __data_end_rom = (_etext + SIZEOF (.data))
OUTPUT(sdn-controller.exp5438 elf32-msp430)

.gnu.attributes
                0x0000000000000000       0x11
 .gnu.attributes
                0x0000000000000000       0x11 /home/mkulkarni/opt/compiler/mspgcc-4.7.3/bin/../lib/gcc/msp430/4.7.3/mcpu-430x/mmpy-16/msr20/mc20/crt0ivtbl64.o
 .gnu.attributes
                0x0000000000000011       0x11 sdn-controller.co
 .gnu.attributes
                0x0000000000000022       0x11 obj_exp5438/sdn-stats.o
 .gnu.attributes
                0x0000000000000033       0x11 obj_exp5438/contiki-exp5438-main.o
 .gnu.attributes
                0x0000000000000044       0x11 contiki-exp5438.a(atom.o)
 .gnu.attributes
                0x0000000000000055       0x11 contiki-exp5438.a(atom-buffer.o)
 .gnu.attributes
                0x0000000000000066       0x11 contiki-exp5438.a(atom-net.o)
 .gnu.attributes
                0x0000000000000077       0x11 contiki-exp5438.a(atom-sb-usdn.o)
 .gnu.attributes
                0x0000000000000088       0x11 contiki-exp5438.a(atom-sb-rpl.o)
 .gnu.attributes
                0x0000000000000099       0x11 contiki-exp5438.a(atom-app-route-)
 .gnu.attributes
                0x00000000000000aa       0x11 contiki-exp5438.a(atom-app-route-)
 .gnu.attributes
                0x00000000000000bb       0x11 contiki-exp5438.a(atom-app-join-c)
 .gnu.attributes
                0x00000000000000cc       0x11 contiki-exp5438.a(msp430.o)
 .gnu.attributes
                0x00000000000000dd       0x11 contiki-exp5438.a(leds.o)
 .gnu.attributes
                0x00000000000000ee       0x11 contiki-exp5438.a(watchdog.o)
 .gnu.attributes
                0x00000000000000ff       0x11 contiki-exp5438.a(cc2420.o)
 .gnu.attributes
                0x0000000000000110       0x11 contiki-exp5438.a(cc2420-arch.o)
 .gnu.attributes
                0x0000000000000121       0x11 contiki-exp5438.a(rtimer-arch.o)
 .gnu.attributes
                0x0000000000000132       0x11 contiki-exp5438.a(node-id.o)
 .gnu.attributes
                0x0000000000000143       0x11 contiki-exp5438.a(leds-arch.o)
 .gnu.attributes
                0x0000000000000154       0x11 contiki-exp5438.a(uart1x.o)
 .gnu.attributes
                0x0000000000000165       0x11 contiki-exp5438.a(lcd.o)
 .gnu.attributes
                0x0000000000000176       0x11 contiki-exp5438.a(duty-cycle-scro)
 .gnu.attributes
                0x0000000000000187       0x11 contiki-exp5438.a(uart1-putchar.o)
 .gnu.attributes
                0x0000000000000198       0x11 contiki-exp5438.a(clock.o)
 .gnu.attributes
                0x00000000000001a9       0x11 contiki-exp5438.a(sdn-conf.o)
 .gnu.attributes
                0x00000000000001ba       0x11 contiki-exp5438.a(sdn.o)
 .gnu.attributes
                0x00000000000001cb       0x11 contiki-exp5438.a(usdn-adapter.o)
 .gnu.attributes
                0x00000000000001dc       0x11 contiki-exp5438.a(usdn-driver.o)
 .gnu.attributes
                0x00000000000001ed       0x11 contiki-exp5438.a(usdn-engine.o)
 .gnu.attributes
                0x00000000000001fe       0x11 contiki-exp5438.a(autostart.o)
 .gnu.attributes
                0x000000000000020f       0x11 contiki-exp5438.a(energest.o)
 .gnu.attributes
                0x0000000000000220       0x11 contiki-exp5438.a(etimer.o)
 .gnu.attributes
                0x0000000000000231       0x11 contiki-exp5438.a(log-ng.o)
 .gnu.attributes
                0x0000000000000242       0x11 contiki-exp5438.a(ctimer.o)
 .gnu.attributes
                0x0000000000000253       0x11 contiki-exp5438.a(process.o)
 .gnu.attributes
                0x0000000000000264       0x11 contiki-exp5438.a(rtimer.o)
 .gnu.attributes
                0x0000000000000275       0x11 contiki-exp5438.a(timer.o)
 .gnu.attributes
                0x0000000000000286       0x11 contiki-exp5438.a(list.o)
 .gnu.attributes
                0x0000000000000297       0x11 contiki-exp5438.a(memb.o)
 .gnu.attributes
                0x00000000000002a8       0x11 contiki-exp5438.a(random.o)
 .gnu.attributes
                0x00000000000002b9       0x11 contiki-exp5438.a(uip-ds6.o)
 .gnu.attributes
                0x00000000000002ca       0x11 contiki-exp5438.a(uip-ds6-route.o)
 .gnu.attributes
                0x00000000000002db       0x11 contiki-exp5438.a(uip6.o)
 .gnu.attributes
                0x00000000000002ec       0x11 contiki-exp5438.a(uip-ds6-nbr.o)
 .gnu.attributes
                0x00000000000002fd       0x11 contiki-exp5438.a(uip-nd6.o)
 .gnu.attributes
                0x000000000000030e       0x11 contiki-exp5438.a(sicslowpan.o)
 .gnu.attributes
                0x000000000000031f       0x11 contiki-exp5438.a(uip-debug.o)
 .gnu.attributes
                0x0000000000000330       0x11 contiki-exp5438.a(uip-udp-packet.)
 .gnu.attributes
                0x0000000000000341       0x11 contiki-exp5438.a(tcpip.o)
 .gnu.attributes
                0x0000000000000352       0x11 contiki-exp5438.a(simple-udp.o)
 .gnu.attributes
                0x0000000000000363       0x11 contiki-exp5438.a(rpl-ext-header.)
 .gnu.attributes
                0x0000000000000374       0x11 contiki-exp5438.a(rpl.o)
 .gnu.attributes
                0x0000000000000385       0x11 contiki-exp5438.a(rpl-ns.o)
 .gnu.attributes
                0x0000000000000396       0x11 contiki-exp5438.a(rpl-dag.o)
 .gnu.attributes
                0x00000000000003a7       0x11 contiki-exp5438.a(queuebuf.o)
 .gnu.attributes
                0x00000000000003b8       0x11 contiki-exp5438.a(nbr-table.o)
 .gnu.attributes
                0x00000000000003c9       0x11 contiki-exp5438.a(packetbuf.o)
 .gnu.attributes
                0x00000000000003da       0x11 contiki-exp5438.a(linkaddr.o)
 .gnu.attributes
                0x00000000000003eb       0x11 contiki-exp5438.a(link-stats.o)
 .gnu.attributes
                0x00000000000003fc       0x11 contiki-exp5438.a(framer-802154.o)
 .gnu.attributes
                0x000000000000040d       0x11 contiki-exp5438.a(csma.o)
 .gnu.attributes
                0x000000000000041e       0x11 contiki-exp5438.a(frame802154.o)
 .gnu.attributes
                0x000000000000042f       0x11 contiki-exp5438.a(mac.o)
 .gnu.attributes
                0x0000000000000440       0x11 contiki-exp5438.a(nullrdc.o)
 .gnu.attributes
                0x0000000000000451       0x11 contiki-exp5438.a(nullsec.o)
 .gnu.attributes
                0x0000000000000462       0x11 contiki-exp5438.a(spix.o)
 .gnu.attributes
                0x0000000000000473       0x11 contiki-exp5438.a(sdn-ft.o)
 .gnu.attributes
                0x0000000000000484       0x11 contiki-exp5438.a(sdn-cd.o)
 .gnu.attributes
                0x0000000000000495       0x11 contiki-exp5438.a(sdn-ext-header.)
 .gnu.attributes
                0x00000000000004a6       0x11 contiki-exp5438.a(sdn-packetbuf.o)
 .gnu.attributes
                0x00000000000004b7       0x11 contiki-exp5438.a(stimer.o)
 .gnu.attributes
                0x00000000000004c8       0x11 contiki-exp5438.a(uip-icmp6.o)
 .gnu.attributes
                0x00000000000004d9       0x11 contiki-exp5438.a(rpl-icmp6.o)
 .gnu.attributes
                0x00000000000004ea       0x11 contiki-exp5438.a(rpl-sdn.o)
 .gnu.attributes
                0x00000000000004fb       0x11 contiki-exp5438.a(rpl-timers.o)
 .gnu.attributes
                0x000000000000050c       0x11 contiki-exp5438.a(rpl-nbr-policy.)
 .gnu.attributes
                0x000000000000051d       0x11 contiki-exp5438.a(rpl-mrhof.o)
 .gnu.attributes
                0x000000000000052e       0x11 contiki-exp5438.a(mac-sequence.o)
 .gnu.attributes
                0x000000000000053f       0x11 /home/mkulkarni/opt/compiler/mspgcc-4.7.3/bin/../lib/gcc/msp430/4.7.3/mcpu-430x/mmpy-16/msr20/mc20/libgcc.a(_udivmod16.o)
 .gnu.attributes
                0x0000000000000550       0x11 /home/mkulkarni/opt/compiler/mspgcc-4.7.3/bin/../lib/gcc/msp430/4.7.3/mcpu-430x/mmpy-16/msr20/mc20/libgcc.a(_divmod16.o)
 .gnu.attributes
                0x0000000000000561       0x11 /home/mkulkarni/opt/compiler/mspgcc-4.7.3/bin/../lib/gcc/msp430/4.7.3/mcpu-430x/mmpy-16/msr20/mc20/libgcc.a(_udivmod32.o)
 .gnu.attributes
                0x0000000000000572       0x11 /home/mkulkarni/opt/compiler/mspgcc-4.7.3/bin/../lib/gcc/msp430/4.7.3/mcpu-430x/mmpy-16/msr20/mc20/libgcc.a(_divmod32.o)
 .gnu.attributes
                0x0000000000000583       0x11 /home/mkulkarni/opt/compiler/mspgcc-4.7.3/bin/../lib/gcc/msp430/4.7.3/mcpu-430x/mmpy-16/msr20/mc20/libgcc.a(_fixunssfsi.o)
 .gnu.attributes
                0x0000000000000594       0x11 /home/mkulkarni/opt/compiler/mspgcc-4.7.3/bin/../lib/gcc/msp430/4.7.3/mcpu-430x/mmpy-16/msr20/mc20/libgcc.a(_addsub_sf.o)
 .gnu.attributes
                0x00000000000005a5       0x11 /home/mkulkarni/opt/compiler/mspgcc-4.7.3/bin/../lib/gcc/msp430/4.7.3/mcpu-430x/mmpy-16/msr20/mc20/libgcc.a(_mul_sf.o)
 .gnu.attributes
                0x00000000000005b6       0x11 /home/mkulkarni/opt/compiler/mspgcc-4.7.3/bin/../lib/gcc/msp430/4.7.3/mcpu-430x/mmpy-16/msr20/mc20/libgcc.a(_ge_sf.o)
 .gnu.attributes
                0x00000000000005c7       0x11 /home/mkulkarni/opt/compiler/mspgcc-4.7.3/bin/../lib/gcc/msp430/4.7.3/mcpu-430x/mmpy-16/msr20/mc20/libgcc.a(_sf_to_si.o)
 .gnu.attributes
                0x00000000000005d8       0x11 /home/mkulkarni/opt/compiler/mspgcc-4.7.3/bin/../lib/gcc/msp430/4.7.3/mcpu-430x/mmpy-16/msr20/mc20/libgcc.a(_thenan_sf.o)
 .gnu.attributes
                0x00000000000005e9       0x11 /home/mkulkarni/opt/compiler/mspgcc-4.7.3/bin/../lib/gcc/msp430/4.7.3/mcpu-430x/mmpy-16/msr20/mc20/libgcc.a(_usi_to_sf.o)
 .gnu.attributes
                0x00000000000005fa       0x11 /home/mkulkarni/opt/compiler/mspgcc-4.7.3/bin/../lib/gcc/msp430/4.7.3/mcpu-430x/mmpy-16/msr20/mc20/libgcc.a(_clzsi2.o)
 .gnu.attributes
                0x000000000000060b       0x11 /home/mkulkarni/opt/compiler/mspgcc-4.7.3/bin/../lib/gcc/msp430/4.7.3/mcpu-430x/mmpy-16/msr20/mc20/libgcc.a(_pack_sf.o)
 .gnu.attributes
                0x000000000000061c       0x11 /home/mkulkarni/opt/compiler/mspgcc-4.7.3/bin/../lib/gcc/msp430/4.7.3/mcpu-430x/mmpy-16/msr20/mc20/libgcc.a(_unpack_sf.o)
 .gnu.attributes
                0x000000000000062d       0x11 /home/mkulkarni/opt/compiler/mspgcc-4.7.3/bin/../lib/gcc/msp430/4.7.3/mcpu-430x/mmpy-16/msr20/mc20/libgcc.a(_fpcmp_parts_sf.o)
 .gnu.attributes
                0x000000000000063e       0x11 /home/mkulkarni/opt/compiler/mspgcc-4.7.3/bin/../lib/gcc/msp430/4.7.3/mcpu-430x/mmpy-16/msr20/mc20/libgcc.a(_clz.o)
 .gnu.attributes
                0x000000000000064f       0x11 /home/mkulkarni/opt/compiler/mspgcc-4.7.3/bin/../lib/gcc/msp430/4.7.3/../../../../msp430/lib/mcpu-430x/mmpy-16/msr20/mc20/libc.a(printf.o)
 .gnu.attributes
                0x0000000000000660       0x11 /home/mkulkarni/opt/compiler/mspgcc-4.7.3/bin/../lib/gcc/msp430/4.7.3/../../../../msp430/lib/mcpu-430x/mmpy-16/msr20/mc20/libc.a(vuprintf.o)
 .gnu.attributes
                0x0000000000000671       0x11 /home/mkulkarni/opt/compiler/mspgcc-4.7.3/bin/../lib/gcc/msp430/4.7.3/../../../../msp430/lib/mcpu-430x/mmpy-16/msr20/mc20/libc.a(puts.o)
 .gnu.attributes
                0x0000000000000682       0x11 /home/mkulkarni/opt/compiler/mspgcc-4.7.3/bin/../lib/gcc/msp430/4.7.3/../../../../msp430/lib/mcpu-430x/mmpy-16/msr20/mc20/libc.a(rand.o)
 .gnu.attributes
                0x0000000000000693       0x11 /home/mkulkarni/opt/compiler/mspgcc-4.7.3/bin/../lib/gcc/msp430/4.7.3/../../../../msp430/lib/mcpu-430x/mmpy-16/msr20/mc20/libc.a(memcmp.o)
 .gnu.attributes
                0x00000000000006a4       0x11 /home/mkulkarni/opt/compiler/mspgcc-4.7.3/bin/../lib/gcc/msp430/4.7.3/../../../../msp430/lib/mcpu-430x/mmpy-16/msr20/mc20/libc.a(memcpy.o)
 .gnu.attributes
                0x00000000000006b5       0x11 /home/mkulkarni/opt/compiler/mspgcc-4.7.3/bin/../lib/gcc/msp430/4.7.3/../../../../msp430/lib/mcpu-430x/mmpy-16/msr20/mc20/libc.a(memmove.o)
 .gnu.attributes
                0x00000000000006c6       0x11 /home/mkulkarni/opt/compiler/mspgcc-4.7.3/bin/../lib/gcc/msp430/4.7.3/../../../../msp430/lib/mcpu-430x/mmpy-16/msr20/mc20/libc.a(memset.o)
 .gnu.attributes
                0x00000000000006d7       0x11 /home/mkulkarni/opt/compiler/mspgcc-4.7.3/bin/../lib/gcc/msp430/4.7.3/mcpu-430x/mmpy-16/msr20/mc20/libgcc.a(_mulsi3.o)
 .gnu.attributes
                0x00000000000006e8       0x11 /home/mkulkarni/opt/compiler/mspgcc-4.7.3/bin/../lib/gcc/msp430/4.7.3/mcpu-430x/mmpy-16/msr20/mc20/libgcc.a(_udivmod64.o)
 .gnu.attributes
                0x00000000000006f9       0x11 /home/mkulkarni/opt/compiler/mspgcc-4.7.3/bin/../lib/gcc/msp430/4.7.3/mcpu-430x/mmpy-16/msr20/mc20/libcrt0.a(_reset_vector__.o)
 .gnu.attributes
                0x000000000000070a       0x11 /home/mkulkarni/opt/compiler/mspgcc-4.7.3/bin/../lib/gcc/msp430/4.7.3/mcpu-430x/mmpy-16/msr20/mc20/libcrt0.a(__watchdog_support.o)
 .gnu.attributes
                0x000000000000071b       0x11 /home/mkulkarni/opt/compiler/mspgcc-4.7.3/bin/../lib/gcc/msp430/4.7.3/mcpu-430x/mmpy-16/msr20/mc20/libcrt0.a(__init_stack.o)
 .gnu.attributes
                0x000000000000072c       0x11 /home/mkulkarni/opt/compiler/mspgcc-4.7.3/bin/../lib/gcc/msp430/4.7.3/mcpu-430x/mmpy-16/msr20/mc20/libcrt0.a(__low_level_init.o)
 .gnu.attributes
                0x000000000000073d       0x11 /home/mkulkarni/opt/compiler/mspgcc-4.7.3/bin/../lib/gcc/msp430/4.7.3/mcpu-430x/mmpy-16/msr20/mc20/libcrt0.a(_copy_data.o)
 .gnu.attributes
                0x000000000000074e       0x11 /home/mkulkarni/opt/compiler/mspgcc-4.7.3/bin/../lib/gcc/msp430/4.7.3/mcpu-430x/mmpy-16/msr20/mc20/libcrt0.a(_clear_bss.o)
 .gnu.attributes
                0x000000000000075f       0x11 /home/mkulkarni/opt/compiler/mspgcc-4.7.3/bin/../lib/gcc/msp430/4.7.3/mcpu-430x/mmpy-16/msr20/mc20/libcrt0.a(__stop_progExec__.o)
 .gnu.attributes
                0x0000000000000770       0x11 /home/mkulkarni/opt/compiler/mspgcc-4.7.3/bin/../lib/gcc/msp430/4.7.3/mcpu-430x/mmpy-16/msr20/mc20/libcrt0.a(_endless_loop__.o)
 .gnu.attributes
                0x0000000000000781       0x11 /home/mkulkarni/opt/compiler/mspgcc-4.7.3/bin/../lib/gcc/msp430/4.7.3/mcpu-430x/mmpy-16/msr20/mc20/libcrt0.a(_unexpected_.o)
